(lp0
(lp1
S'saveWebContents'
p2
aS'110022'
p3
aa.(lp0
(lp1
S'saveWebContents'
p2
aS'110022'
p3
aa.(lp0
(lp1
S'saveWebContents'
p2
aS'001645'
p3
aa.(lp0
(lp1
S'parserWebContents'
p2
aS'003095'
p3
aa(lp4
S'saveWebContents'
p5
ag3
aa.(lp0
(lp1
S'parserWebContents'
p2
aS'161122'
p3
aa(lp4
S'saveWebContents'
p5
ag3
aa.(lp0
(lp1
S'parserWebContents'
p2
aS'501010'
p3
aa(lp4
S'saveWebContents'
p5
ag3
aa.(lp0
(lp1
S'saveWebContents'
p2
aS'001417'
p3
aa.(lp0
(lp1
S'parserWebContents'
p2
aS'501009'
p3
aa(lp4
S'saveWebContents'
p5
ag3
aa.(lp0
(lp1
S'parserWebContents'
p2
aS'003096'
p3
aa(lp4
S'saveWebContents'
p5
ag3
aa.(lp0
(lp1
S'parserWebContents'
p2
aS'501006'
p3
aa(lp4
S'saveWebContents'
p5
ag3
aa.(lp0
(lp1
S'parserWebContents'
p2
aS'501005'
p3
aa(lp4
S'saveWebContents'
p5
ag3
aa.(lp0
(lp1
S'saveWebContents'
p2
aS'050026'
p3
aa.(lp0
(lp1
S'saveWebContents'
p2
aS'005112'
p3
aa.(lp0
(lp1
S'parserWebContents'
p2
aS'162412'
p3
aa(lp4
S'saveWebContents'
p5
ag3
aa.(lp0
(lp1
S'parserWebContents'
p2
aS'502056'
p3
aa(lp4
S'saveWebContents'
p5
ag3
aa.(lp0
(lp1
S'saveWebContents'
p2
aS'002708'
p3
aa.(lp0
(lp1
S'saveWebContents'
p2
aS'000073'
p3
aa.(lp0
(lp1
S'parserWebContents'
p2
aS'161726'
p3
aa(lp4
S'saveWebContents'
p5
ag3
aa.(lp0
(lp1
S'saveWebContents'
p2
aS'005176'
p3
aa.(lp0
(lp1
S'parserWebContents'
p2
aS'160219'
p3
aa(lp4
S'saveWebContents'
p5
ag3
aa.(lp0
.(lp0
(lp1
S'parserWebContents'
p2
aS'000946'
p3
aa(lp4
S'saveWebContents'
p5
ag3
aa.(lp0
(lp1
S'saveWebContents'
p2
aS'002264'
p3
aa.(lp0
(lp1
S'parserWebContents'
p2
aS'000220'
p3
aa(lp4
S'saveWebContents'
p5
ag3
aa.(lp0
(lp1
S'saveWebContents'
p2
aS'000780'
p3
aa.(lp0
(lp1
S'parserWebContents'
p2
aS'000945'
p3
aa(lp4
S'saveWebContents'
p5
ag3
aa.(lp0
.(lp0
(lp1
S'saveWebContents'
p2
aS'000711'
p3
aa.(lp0
(lp1
S'saveWebContents'
p2
aS'001861'
p3
aa.(lp0
(lp1
S'parserWebContents'
p2
aS'501011'
p3
aa(lp4
S'saveWebContents'
p5
ag3
aa.(lp0
(lp1
S'saveWebContents'
p2
aS'002137'
p3
aa.(lp0
.(lp0
(lp1
S'saveWebContents'
p2
aS'001915'
p3
aa.(lp0
(lp1
S'parserWebContents'
p2
aS'501012'
p3
aa(lp4
S'saveWebContents'
p5
ag3
aa.(lp0
(lp1
S'saveWebContents'
p2
aS'001230'
p3
aa.(lp0
(lp1
S'parserWebContents'
p2
aS'000879'
p3
aa(lp4
S'saveWebContents'
p5
ag3
aa.(lp0
(lp1
S'parserWebContents'
p2
aS'001551'
p3
aa(lp4
S'saveWebContents'
p5
ag3
aa.(lp0
(lp1
S'parserWebContents'
p2
aS'001550'
p3
aa(lp4
S'saveWebContents'
p5
ag3
aa.(lp0
(lp1
S'saveWebContents'
p2
aS'002300'
p3
aa.(lp0
(lp1
S'parserWebContents'
p2
aS'005237'
p3
aa(lp4
S'saveWebContents'
p5
ag3
aa.(lp0
(lp1
S'saveWebContents'
p2
aS'002919'
p3
aa.(lp0
(lp1
S'parserWebContents'
p2
aS'005238'
p3
aa(lp4
S'saveWebContents'
p5
ag3
aa.(lp0
(lp1
S'parserWebContents'
p2
aS'163118'
p3
aa(lp4
S'saveWebContents'
p5
ag3
aa.(lp0
(lp1
S'parserWebContents'
p2
aS'470006'
p3
aa.(lp0
(lp1
S'parserWebContents'
p2
aS'000878'
p3
aa(lp4
S'saveWebContents'
p5
ag3
aa.(lp0
(lp1
S'saveWebContents'
p2
aS'000059'
p3
aa.(lp0
.(lp0
(lp1
S'saveWebContents'
p2
aS'000646'
p3
aa.(lp0
(lp1
S'parserWebContents'
p2
aS'000376'
p3
aa(lp4
S'saveWebContents'
p5
ag3
aa.(lp0
(lp1
S'saveWebContents'
p2
aS'001223'
p3
aa.(lp0
(lp1
S'saveWebContents'
p2
aS'001344'
p3
aa.(lp0
(lp1
S'parserWebContents'
p2
aS'000373'
p3
aa(lp4
S'saveWebContents'
p5
ag3
aa.(lp0
(lp1
S'parserWebContents'
p2
aS'002978'
p3
aa(lp4
S'saveWebContents'
p5
ag3
aa.(lp0
(lp1
S'parserWebContents'
p2
aS'001180'
p3
aa(lp4
S'saveWebContents'
p5
ag3
aa.(lp0
.(lp0
(lp1
S'saveWebContents'
p2
aS'002180'
p3
aa.(lp0
(lp1
S'parserWebContents'
p2
aS'501007'
p3
aa(lp4
S'saveWebContents'
p5
ag3
aa.(lp0
.(lp0
(lp1
S'saveWebContents'
p2
aS'004683'
p3
aa.(lp0
(lp1
S'parserWebContents'
p2
aS'501008'
p3
aa(lp4
S'saveWebContents'
p5
ag3
aa.(lp0
(lp1
S'saveWebContents'
p2
aS'003769'
p3
aa.(lp0
(lp1
S'parserWebContents'
p2
aS'501008'
p3
aa(lp4
S'saveWebContents'
p5
ag3
aa.(lp0
(lp1
S'parserWebContents'
p2
aS'501008'
p3
aa(lp4
S'saveWebContents'
p5
ag3
aa.(lp0
(lp1
S'parserWebContents'
p2
aS'501008'
p3
aa(lp4
S'saveWebContents'
p5
ag3
aa.(lp0
(lp1
S'parserWebContents'
p2
aS'501008'
p3
aa(lp4
S'saveWebContents'
p5
ag3
aa.(lp0
(lp1
S'parserWebContents'
p2
aS'501008'
p3
aa(lp4
S'saveWebContents'
p5
ag3
aa.(lp0
(lp1
S'parserWebContents'
p2
aS'501008'
p3
aa(lp4
S'saveWebContents'
p5
ag3
aa.(lp0
(lp1
S'parserWebContents'
p2
aS'501008'
p3
aa(lp4
S'saveWebContents'
p5
ag3
aa.(lp0
(lp1
S'parserWebContents'
p2
aS'501008'
p3
aa(lp4
S'saveWebContents'
p5
ag3
aa.(lp0
(lp1
S'parserWebContents'
p2
aS'501008'
p3
aa(lp4
S'saveWebContents'
p5
ag3
aa.(lp0
(lp1
S'parserWebContents'
p2
aS'501008'
p3
aa(lp4
S'saveWebContents'
p5
ag3
aa.(lp0
(lp1
S'parserWebContents'
p2
aS'501008'
p3
aa.(lp0
(lp1
S'parserWebContents'
p2
aS'501008'
p3
aa.(lp0
(lp1
S'parserWebContents'
p2
aS'501008'
p3
aa.(lp0
(lp1
S'parserWebContents'
p2
aS'501008'
p3
aa.(lp0
.(lp0
.(lp0
.(lp0
(lp1
S'saveWebContents'
p2
aS'501008'
p3
aa.(lp0
.(lp0
.(lp0
.(lp0
(lp1
S'saveWebContents'
p2
aS'501008'
p3
aa.(lp0
.(lp0
(lp1
S'saveWebContents'
p2
aS'501008'
p3
aa.(lp0
(lp1
S'saveWebContents'
p2
aS'501008'
p3
aa.(lp0
(lp1
S'saveWebContents'
p2
aS'501008'
p3
aa.(lp0
(lp1
S'saveWebContents'
p2
aS'501008'
p3
aa.(lp0
(lp1
S'saveWebContents'
p2
aS'501008'
p3
aa.(lp0
(lp1
S'saveWebContents'
p2
aS'001645'
p3
aa.(lp0
(lp1
S'saveWebContents'
p2
aS'003095'
p3
aa.(lp0
.(lp0
.(lp0
(lp1
S'saveWebContents'
p2
aS'001417'
p3
aa.(lp0
.(lp0
(lp1
S'saveWebContents'
p2
aS'003096'
p3
aa.(lp0
.(lp0
.(lp0
(lp1
S'saveWebContents'
p2
aS'050026'
p3
aa.(lp0
(lp1
S'parserWebContents'
p2
aS'005112'
p3
aa(lp4
S'saveWebContents'
p5
ag3
aa.(lp0
(lp1
S'parserWebContents'
p2
aS'162412'
p3
aa.(lp0
(lp1
S'parserWebContents'
p2
aS'502056'
p3
aa.(lp0
(lp1
S'parserWebContents'
p2
aS'002708'
p3
aa(lp4
S'saveWebContents'
p5
ag3
aa.(lp0
(lp1
S'saveWebContents'
p2
aS'000073'
p3
aa.(lp0
(lp1
S'parserWebContents'
p2
aS'161726'
p3
aa.(lp0
(lp1
S'parserWebContents'
p2
aS'005176'
p3
aa(lp4
S'saveWebContents'
p5
ag3
aa.(lp0
(lp1
S'parserWebContents'
p2
aS'160219'
p3
aa.(lp0
.(lp0
(lp1
S'saveWebContents'
p2
aS'000946'
p3
aa.(lp0
(lp1
S'saveWebContents'
p2
aS'002264'
p3
aa.(lp0
(lp1
S'parserWebContents'
p2
aS'000220'
p3
aa(lp4
S'saveWebContents'
p5
ag3
aa.(lp0
(lp1
S'saveWebContents'
p2
aS'000780'
p3
aa.(lp0
(lp1
S'saveWebContents'
p2
aS'000945'
p3
aa.(lp0
.(lp0
(lp1
S'saveWebContents'
p2
aS'000711'
p3
aa.(lp0
(lp1
S'saveWebContents'
p2
aS'001861'
p3
aa.(lp0
.(lp0
(lp1
S'saveWebContents'
p2
aS'002137'
p3
aa.(lp0
.(lp0
(lp1
S'saveWebContents'
p2
aS'001915'
p3
aa.(lp0
.(lp0
(lp1
S'saveWebContents'
p2
aS'001230'
p3
aa.(lp0
(lp1
S'saveWebContents'
p2
aS'000879'
p3
aa.(lp0
(lp1
S'parserWebContents'
p2
aS'001551'
p3
aa(lp4
S'saveWebContents'
p5
ag3
aa.(lp0
(lp1
S'parserWebContents'
p2
aS'001550'
p3
aa(lp4
S'saveWebContents'
p5
ag3
aa.(lp0
(lp1
S'saveWebContents'
p2
aS'002300'
p3
aa.(lp0
(lp1
S'parserWebContents'
p2
aS'005237'
p3
aa(lp4
S'saveWebContents'
p5
ag3
aa.(lp0
(lp1
S'saveWebContents'
p2
aS'002919'
p3
aa.(lp0
(lp1
S'parserWebContents'
p2
aS'005238'
p3
aa(lp4
S'saveWebContents'
p5
ag3
aa.(lp0
(lp1
S'saveWebContents'
p2
aS'001645'
p3
aa.(lp0
(lp1
S'saveWebContents'
p2
aS'003095'
p3
aa.(lp0
.(lp0
.(lp0
(lp1
S'saveWebContents'
p2
aS'001417'
p3
aa.(lp0
.(lp0
(lp1
S'saveWebContents'
p2
aS'003096'
p3
aa.(lp0
.(lp0
.(lp0
(lp1
S'saveWebContents'
p2
aS'050026'
p3
aa.(lp0
(lp1
S'saveWebContents'
p2
aS'005112'
p3
aa.(lp0
.(lp0
.(lp0
(lp1
S'saveWebContents'
p2
aS'002708'
p3
aa.(lp0
(lp1
S'saveWebContents'
p2
aS'000073'
p3
aa.(lp0
.(lp0
(lp1
S'saveWebContents'
p2
aS'005176'
p3
aa.(lp0
.(lp0
.(lp0
(lp1
S'saveWebContents'
p2
aS'000946'
p3
aa.(lp0
(lp1
S'saveWebContents'
p2
aS'002264'
p3
aa.(lp0
(lp1
S'saveWebContents'
p2
aS'000220'
p3
aa.(lp0
(lp1
S'saveWebContents'
p2
aS'000780'
p3
aa.(lp0
(lp1
S'saveWebContents'
p2
aS'000945'
p3
aa.(lp0
.(lp0
(lp1
S'saveWebContents'
p2
aS'000711'
p3
aa.(lp0
(lp1
S'saveWebContents'
p2
aS'001861'
p3
aa.(lp0
.(lp0
(lp1
S'saveWebContents'
p2
aS'002137'
p3
aa.(lp0
.(lp0
(lp1
S'saveWebContents'
p2
aS'001915'
p3
aa.(lp0
.(lp0
(lp1
S'saveWebContents'
p2
aS'001230'
p3
aa.(lp0
(lp1
S'saveWebContents'
p2
aS'000879'
p3
aa.(lp0
(lp1
S'saveWebContents'
p2
aS'001551'
p3
aa.(lp0
(lp1
S'saveWebContents'
p2
aS'001550'
p3
aa.(lp0
(lp1
S'saveWebContents'
p2
aS'002300'
p3
aa.(lp0
(lp1
S'saveWebContents'
p2
aS'005237'
p3
aa.(lp0
(lp1
S'saveWebContents'
p2
aS'002919'
p3
aa.(lp0
(lp1
S'saveWebContents'
p2
aS'005238'
p3
aa.(lp0
.(lp0
.(lp0
(lp1
S'saveWebContents'
p2
aS'000878'
p3
aa.(lp0
(lp1
S'saveWebContents'
p2
aS'000059'
p3
aa.(lp0
.(lp0
(lp1
S'saveWebContents'
p2
aS'000646'
p3
aa.(lp0
(lp1
S'saveWebContents'
p2
aS'000376'
p3
aa.(lp0
(lp1
S'saveWebContents'
p2
aS'001223'
p3
aa.(lp0
(lp1
S'saveWebContents'
p2
aS'001344'
p3
aa.(lp0
(lp1
S'saveWebContents'
p2
aS'000373'
p3
aa.(lp0
(lp1
S'saveWebContents'
p2
aS'002978'
p3
aa.(lp0
(lp1
S'saveWebContents'
p2
aS'001180'
p3
aa.(lp0
.(lp0
(lp1
S'saveWebContents'
p2
aS'002180'
p3
aa.(lp0
.(lp0
.(lp0
(lp1
S'saveWebContents'
p2
aS'004683'
p3
aa.(lp0
.(lp0
(lp1
S'saveWebContents'
p2
aS'003769'
p3
aa.(lp0
(lp1
S'saveWebContents'
p2
aS'000512'
p3
aa.(lp0
.(lp0
(lp1
S'saveWebContents'
p2
aS'004905'
p3
aa.(lp0
(lp1
S'saveWebContents'
p2
aS'005303'
p3
aa.(lp0
(lp1
S'saveWebContents'
p2
aS'005304'
p3
aa.(lp0
(lp1
S'saveWebContents'
p2
aS'002063'
p3
aa.(lp0
.(lp0
(lp1
S'saveWebContents'
p2
aS'164205'
p3
aa.(lp0
(lp1
S'saveWebContents'
p2
aS'000831'
p3
aa.(lp0
(lp1
S'saveWebContents'
p2
aS'002170'
p3
aa.(lp0
(lp1
S'saveWebContents'
p2
aS'001323'
p3
aa.(lp0
.(lp0
(lp1
S'saveWebContents'
p2
aS'004306'
p3
aa.(lp0
.(lp0
(lp1
S'saveWebContents'
p2
aS'004305'
p3
aa.(lp0
(lp1
S'saveWebContents'
p2
aS'002173'
p3
aa.(lp0
(lp1
S'saveWebContents'
p2
aS'001984'
p3
aa.(lp0
(lp1
S'saveWebContents'
p2
aS'004448'
p3
aa.(lp0
(lp1
S'saveWebContents'
p2
aS'000727'
p3
aa.(lp0
(lp1
S'saveWebContents'
p2
aS'002553'
p3
aa.(lp0
(lp1
S'saveWebContents'
p2
aS'003581'
p3
aa.(lp0
(lp1
S'saveWebContents'
p2
aS'001313'
p3
aa.(lp0
.(lp0
(lp1
S'saveWebContents'
p2
aS'001388'
p3
aa.(lp0
.(lp0
.(lp0
(lp1
S'saveWebContents'
p2
aS'050014'
p3
aa.(lp0
.(lp0
(lp1
S'saveWebContents'
p2
aS'002408'
p3
aa.(lp0
.(lp0
(lp1
S'saveWebContents'
p2
aS'001069'
p3
aa.(lp0
.(lp0
.(lp0
(lp1
S'saveWebContents'
p2
aS'001766'
p3
aa.(lp0
(lp1
S'saveWebContents'
p2
aS'004069'
p3
aa.(lp0
.(lp0
(lp1
S'saveWebContents'
p2
aS'004070'
p3
aa.(lp0
.(lp0
.(lp0
.(lp0
(lp1
S'saveWebContents'
p2
aS'001387'
p3
aa.(lp0
.(lp0
.(lp0
(lp1
S'saveWebContents'
p2
aS'001007'
p3
aa.(lp0
.(lp0
(lp1
S'saveWebContents'
p2
aS'001726'
p3
aa.(lp0
.(lp0
(lp1
S'saveWebContents'
p2
aS'001482'
p3
aa.(lp0
.(lp0
(lp1
S'saveWebContents'
p2
aS'000845'
p3
aa.(lp0
(lp1
S'saveWebContents'
p2
aS'004304'
p3
aa.(lp0
(lp1
S'saveWebContents'
p2
aS'004303'
p3
aa.(lp0
(lp1
S'saveWebContents'
p2
aS'002082'
p3
aa.(lp0
(lp1
S'saveWebContents'
p2
aS'005447'
p3
aa.(lp0
(lp1
S'saveWebContents'
p2
aS'000979'
p3
aa.(lp0
.(lp0
.(lp0
(lp1
S'saveWebContents'
p2
aS'000960'
p3
aa.(lp0
(lp1
S'saveWebContents'
p2
aS'001558'
p3
aa.(lp0
(lp1
S'saveWebContents'
p2
aS'001559'
p3
aa.(lp0
(lp1
S'saveWebContents'
p2
aS'004075'
p3
aa.(lp0
(lp1
S'saveWebContents'
p2
aS'001717'
p3
aa.(lp0
.(lp0
(lp1
S'saveWebContents'
p2
aS'090012'
p3
aa.(lp0
(lp1
S'saveWebContents'
p2
aS'000523'
p3
aa.(lp0
(lp1
S'saveWebContents'
p2
aS'001815'
p3
aa.(lp0
.(lp0
(lp1
S'saveWebContents'
p2
aS'001167'
p3
aa.(lp0
(lp1
S'saveWebContents'
p2
aS'090020'
p3
aa.(lp0
.(lp0
.(lp0
(lp1
S'saveWebContents'
p2
aS'001365'
p3
aa.(lp0
.(lp0
(lp1
S'saveWebContents'
p2
aS'001366'
p3
aa.(lp0
(lp1
S'saveWebContents'
p2
aS'001508'
p3
aa.(lp0
.(lp0
.(lp0
(lp1
S'saveWebContents'
p2
aS'002259'
p3
aa.(lp0
.(lp0
.(lp0
.(lp0
(lp1
S'saveWebContents'
p2
aS'004870'
p3
aa.(lp0
.(lp0
.(lp0
.(lp0
(lp1
S'saveWebContents'
p2
aS'001009'
p3
aa.(lp0
.(lp0
.(lp0
(lp1
S'saveWebContents'
p2
aS'005265'
p3
aa.(lp0
(lp1
S'saveWebContents'
p2
aS'004851'
p3
aa.(lp0
(lp1
S'saveWebContents'
p2
aS'001510'
p3
aa.(lp0
(lp1
S'saveWebContents'
p2
aS'004744'
p3
aa.(lp0
(lp1
S'saveWebContents'
p2
aS'005266'
p3
aa.(lp0
(lp1
S'saveWebContents'
p2
aS'005390'
p3
aa.(lp0
.(lp0
(lp1
S'saveWebContents'
p2
aS'005391'
p3
aa.(lp0
(lp1
S'saveWebContents'
p2
aS'004343'
p3
aa.(lp0
(lp1
S'saveWebContents'
p2
aS'002656'
p3
aa.(lp0
.(lp0
.(lp0
(lp1
S'saveWebContents'
p2
aS'003765'
p3
aa.(lp0
.(lp0
(lp1
S'saveWebContents'
p2
aS'003766'
p3
aa.(lp0
.(lp0
(lp1
S'saveWebContents'
p2
aS'000219'
p3
aa.(lp0
.(lp0
(lp1
S'saveWebContents'
p2
aS'001322'
p3
aa.(lp0
(lp1
S'saveWebContents'
p2
aS'001171'
p3
aa.(lp0
.(lp0
(lp1
S'saveWebContents'
p2
aS'000965'
p3
aa.(lp0
.(lp0
.(lp0
(lp1
S'saveWebContents'
p2
aS'003279'
p3
aa.(lp0
(lp1
S'saveWebContents'
p2
aS'001128'
p3
aa.(lp0
(lp1
S'saveWebContents'
p2
aS'001592'
p3
aa.(lp0
(lp1
S'saveWebContents'
p2
aS'001593'
p3
aa.(lp0
.(lp0
.(lp0
.(lp0
(lp1
S'saveWebContents'
p2
aS'000751'
p3
aa.(lp0
(lp1
S'saveWebContents'
p2
aS'004263'
p3
aa.(lp0
.(lp0
(lp1
S'saveWebContents'
p2
aS'001786'
p3
aa.(lp0
(lp1
S'saveWebContents'
p2
aS'004476'
p3
aa.(lp0
.(lp0
(lp1
S'saveWebContents'
p2
aS'000526'
p3
aa.(lp0
(lp1
S'saveWebContents'
p2
aS'002938'
p3
aa.(lp0
(lp1
S'saveWebContents'
p2
aS'004671'
p3
aa.(lp0
(lp1
S'saveWebContents'
p2
aS'000390'
p3
aa.(lp0
(lp1
S'saveWebContents'
p2
aS'002059'
p3
aa.(lp0
(lp1
S'saveWebContents'
p2
aS'004734'
p3
aa.(lp0
.(lp0
(lp1
S'saveWebContents'
p2
aS'002256'
p3
aa.(lp0
(lp1
S'saveWebContents'
p2
aS'001272'
p3
aa.(lp0
(lp1
S'saveWebContents'
p2
aS'001874'
p3
aa.(lp0
(lp1
S'saveWebContents'
p2
aS'004735'
p3
aa.(lp0
(lp1
S'saveWebContents'
p2
aS'004374'
p3
aa.(lp0
.(lp0
.(lp0
.(lp0
(lp1
S'saveWebContents'
p2
aS'005310'
p3
aa.(lp0
(lp1
S'saveWebContents'
p2
aS'004375'
p3
aa.(lp0
(lp1
S'saveWebContents'
p2
aS'003069'
p3
aa.(lp0
.(lp0
.(lp0
(lp1
S'saveWebContents'
p2
aS'000452'
p3
aa.(lp0
.(lp0
(lp1
S'saveWebContents'
p2
aS'000822'
p3
aa.(lp0
.(lp0
.(lp0
.(lp0
(lp1
S'saveWebContents'
p2
aS'002707'
p3
aa.(lp0
.(lp0
.(lp0
(lp1
S'saveWebContents'
p2
aS'000925'
p3
aa.(lp0
(lp1
S'saveWebContents'
p2
aS'000913'
p3
aa.(lp0
(lp1
S'saveWebContents'
p2
aS'070002'
p3
aa.(lp0
(lp1
S'saveWebContents'
p2
aS'001555'
p3
aa.(lp0
(lp1
S'saveWebContents'
p2
aS'004677'
p3
aa.(lp0
(lp1
S'saveWebContents'
p2
aS'001554'
p3
aa.(lp0
(lp1
S'saveWebContents'
p2
aS'005555'
p3
aa.(lp0
.(lp0
(lp1
S'saveWebContents'
p2
aS'000739'
p3
aa.(lp0
(lp1
S'saveWebContents'
p2
aS'001037'
p3
aa.(lp0
(lp1
S'saveWebContents'
p2
aS'001541'
p3
aa.(lp0
(lp1
S'saveWebContents'
p2
aS'005554'
p3
aa.(lp0
(lp1
S'saveWebContents'
p2
aS'001184'
p3
aa.(lp0
(lp1
S'saveWebContents'
p2
aS'005454'
p3
aa.(lp0
(lp1
S'saveWebContents'
p2
aS'005453'
p3
aa.(lp0
(lp1
S'saveWebContents'
p2
aS'002860'
p3
aa.(lp0
.(lp0
.(lp0
(lp1
S'saveWebContents'
p2
aS'003624'
p3
aa.(lp0
(lp1
S'saveWebContents'
p2
aS'003625'
p3
aa.(lp0
(lp1
S'saveWebContents'
p2
aS'004435'
p3
aa.(lp0
(lp1
S'saveWebContents'
p2
aS'005675'
p3
aa.(lp0
.(lp0
(lp1
S'saveWebContents'
p2
aS'004434'
p3
aa.(lp0
.(lp0
(lp1
S'saveWebContents'
p2
aS'001622'
p3
aa.(lp0
.(lp0
(lp1
S'saveWebContents'
p2
aS'002583'
p3
aa.(lp0
(lp1
S'saveWebContents'
p2
aS'004996'
p3
aa.(lp0
(lp1
S'saveWebContents'
p2
aS'004292'
p3
aa.(lp0
.(lp0
.(lp0
.(lp0
.(lp0
.(lp0
.(lp0
(lp1
S'saveWebContents'
p2
aS'000127'
p3
aa.(lp0
.(lp0
.(lp0
.(lp0
.(lp0
(lp1
S'saveWebContents'
p2
aS'001515'
p3
aa.(lp0
.(lp0
.(lp0
(lp1
S'saveWebContents'
p2
aS'002189'
p3
aa.(lp0
(lp1
S'saveWebContents'
p2
aS'000071'
p3
aa.(lp0
(lp1
S'saveWebContents'
p2
aS'000527'
p3
aa.(lp0
(lp1
S'saveWebContents'
p2
aS'005659'
p3
aa.(lp0
(lp1
S'saveWebContents'
p2
aS'002810'
p3
aa.(lp0
(lp1
S'saveWebContents'
p2
aS'001760'
p3
aa.(lp0
(lp1
S'saveWebContents'
p2
aS'001479'
p3
aa.(lp0
(lp1
S'saveWebContents'
p2
aS'000173'
p3
aa.(lp0
.(lp0
.(lp0
.(lp0
.(lp0
(lp1
S'saveWebContents'
p2
aS'002142'
p3
aa.(lp0
.(lp0
.(lp0
(lp1
S'saveWebContents'
p2
aS'000531'
p3
aa.(lp0
(lp1
S'saveWebContents'
p2
aS'002824'
p3
aa.(lp0
(lp1
S'saveWebContents'
p2
aS'070013'
p3
aa.(lp0
(lp1
S'saveWebContents'
p2
aS'001102'
p3
aa.(lp0
(lp1
S'saveWebContents'
p2
aS'002823'
p3
aa.(lp0
(lp1
S'saveWebContents'
p2
aS'005211'
p3
aa.(lp0
(lp1
S'saveWebContents'
p2
aS'001125'
p3
aa.(lp0
(lp1
S'saveWebContents'
p2
aS'001713'
p3
aa.(lp0
(lp1
S'saveWebContents'
p2
aS'001718'
p3
aa.(lp0
(lp1
S'saveWebContents'
p2
aS'002593'
p3
aa.(lp0
.(lp0
.(lp0
(lp1
S'saveWebContents'
p2
aS'005504'
p3
aa.(lp0
.(lp0
(lp1
S'saveWebContents'
p2
aS'002653'
p3
aa.(lp0
(lp1
S'saveWebContents'
p2
aS'002692'
p3
aa.(lp0
(lp1
S'saveWebContents'
p2
aS'000684'
p3
aa.(lp0
(lp1
S'saveWebContents'
p2
aS'005620'
p3
aa.(lp0
(lp1
S'saveWebContents'
p2
aS'000328'
p3
aa.(lp0
.(lp0
(lp1
S'saveWebContents'
p2
aS'005621'
p3
aa.(lp0
(lp1
S'saveWebContents'
p2
aS'002482'
p3
aa.(lp0
.(lp0
.(lp0
(lp1
S'saveWebContents'
p2
aS'001537'
p3
aa.(lp0
.(lp0
.(lp0
(lp1
S'saveWebContents'
p2
aS'001053'
p3
aa.(lp0
.(lp0
.(lp0
(lp1
S'saveWebContents'
p2
aS'002056'
p3
aa.(lp0
.(lp0
(lp1
S'saveWebContents'
p2
aS'001056'
p3
aa.(lp0
.(lp0
(lp1
S'saveWebContents'
p2
aS'001126'
p3
aa.(lp0
(lp1
S'saveWebContents'
p2
aS'001638'
p3
aa.(lp0
.(lp0
(lp1
S'saveWebContents'
p2
aS'001162'
p3
aa.(lp0
.(lp0
.(lp0
(lp1
S'saveWebContents'
p2
aS'002982'
p3
aa.(lp0
(lp1
S'saveWebContents'
p2
aS'000936'
p3
aa.(lp0
(lp1
S'saveWebContents'
p2
aS'001685'
p3
aa.(lp0
.(lp0
(lp1
S'saveWebContents'
p2
aS'002580'
p3
aa.(lp0
.(lp0
.(lp0
(lp1
S'saveWebContents'
p2
aS'000968'
p3
aa.(lp0
(lp1
S'saveWebContents'
p2
aS'001364'
p3
aa.(lp0
(lp1
S'saveWebContents'
p2
aS'005075'
p3
aa.(lp0
(lp1
S'saveWebContents'
p2
aS'001348'
p3
aa.(lp0
(lp1
S'saveWebContents'
p2
aS'000457'
p3
aa.(lp0
(lp1
S'saveWebContents'
p2
aS'000594'
p3
aa.(lp0
(lp1
S'saveWebContents'
p2
aS'005044'
p3
aa.(lp0
(lp1
S'saveWebContents'
p2
aS'005043'
p3
aa.(lp0
(lp1
S'saveWebContents'
p2
aS'004649'
p3
aa.(lp0
.(lp0
.(lp0
(lp1
S'saveWebContents'
p2
aS'005239'
p3
aa.(lp0
(lp1
S'saveWebContents'
p2
aS'002885'
p3
aa.(lp0
(lp1
S'saveWebContents'
p2
aS'005240'
p3
aa.(lp0
.(lp0
(lp1
S'saveWebContents'
p2
aS'000761'
p3
aa.(lp0
(lp1
S'saveWebContents'
p2
aS'000697'
p3
aa.(lp0
.(lp0
.(lp0
.(lp0
.(lp0
(lp1
S'saveWebContents'
p2
aS'000974'
p3
aa.(lp0
(lp1
S'saveWebContents'
p2
aS'001852'
p3
aa.(lp0
(lp1
S'saveWebContents'
p2
aS'002686'
p3
aa.(lp0
.(lp0
(lp1
S'saveWebContents'
p2
aS'005051'
p3
aa.(lp0
(lp1
S'saveWebContents'
p2
aS'005067'
p3
aa.(lp0
(lp1
S'saveWebContents'
p2
aS'001044'
p3
aa.(lp0
(lp1
S'saveWebContents'
p2
aS'000075'
p3
aa.(lp0
(lp1
S'saveWebContents'
p2
aS'000076'
p3
aa.(lp0
(lp1
S'saveWebContents'
p2
aS'002685'
p3
aa.(lp0
(lp1
S'saveWebContents'
p2
aS'005052'
p3
aa.(lp0
(lp1
S'saveWebContents'
p2
aS'000601'
p3
aa.(lp0
.(lp0
(lp1
S'saveWebContents'
p2
aS'080006'
p3
aa.(lp0
.(lp0
.(lp0
(lp1
S'saveWebContents'
p2
aS'000598'
p3
aa.(lp0
.(lp0
(lp1
S'saveWebContents'
p2
aS'040020'
p3
aa.(lp0
(lp1
S'saveWebContents'
p2
aS'004918'
p3
aa.(lp0
(lp1
S'saveWebContents'
p2
aS'004917'
p3
aa.(lp0
.(lp0
(lp1
S'saveWebContents'
p2
aS'001030'
p3
aa.(lp0
(lp1
S'saveWebContents'
p2
aS'005028'
p3
aa.(lp0
(lp1
S'saveWebContents'
p2
aS'090016'
p3
aa.(lp0
(lp1
S'saveWebContents'
p2
aS'004385'
p3
aa.(lp0
.(lp0
(lp1
S'saveWebContents'
p2
aS'050008'
p3
aa.(lp0
(lp1
S'saveWebContents'
p2
aS'001777'
p3
aa.(lp0
(lp1
S'saveWebContents'
p2
aS'001540'
p3
aa.(lp0
.(lp0
.(lp0
(lp1
S'saveWebContents'
p2
aS'001778'
p3
aa.(lp0
(lp1
S'saveWebContents'
p2
aS'001878'
p3
aa.(lp0
(lp1
S'saveWebContents'
p2
aS'002054'
p3
aa.(lp0
(lp1
S'saveWebContents'
p2
aS'002973'
p3
aa.(lp0
.(lp0
(lp1
S'saveWebContents'
p2
aS'004975'
p3
aa.(lp0
(lp1
S'saveWebContents'
p2
aS'001460'
p3
aa.(lp0
.(lp0
(lp1
S'saveWebContents'
p2
aS'001694'
p3
aa.(lp0
.(lp0
.(lp0
(lp1
S'saveWebContents'
p2
aS'001970'
p3
aa.(lp0
(lp1
S'saveWebContents'
p2
aS'000717'
p3
aa.(lp0
(lp1
S'saveWebContents'
p2
aS'001605'
p3
aa.(lp0
(lp1
S'saveWebContents'
p2
aS'001597'
p3
aa.(lp0
(lp1
S'saveWebContents'
p2
aS'001000'
p3
aa.(lp0
(lp1
S'saveWebContents'
p2
aS'001795'
p3
aa.(lp0
(lp1
S'saveWebContents'
p2
aS'001753'
p3
aa.(lp0
.(lp0
(lp1
S'saveWebContents'
p2
aS'001657'
p3
aa.(lp0
(lp1
S'saveWebContents'
p2
aS'004098'
p3
aa.(lp0
(lp1
S'saveWebContents'
p2
aS'003132'
p3
aa.(lp0
.(lp0
.(lp0
(lp1
S'saveWebContents'
p2
aS'002152'
p3
aa.(lp0
(lp1
S'saveWebContents'
p2
aS'001036'
p3
aa.(lp0
.(lp0
.(lp0
(lp1
S'saveWebContents'
p2
aS'001446'
p3
aa.(lp0
(lp1
S'saveWebContents'
p2
aS'001538'
p3
aa.(lp0
.(lp0
.(lp0
.(lp0
(lp1
S'saveWebContents'
p2
aS'000031'
p3
aa.(lp0
(lp1
S'saveWebContents'
p2
aS'001427'
p3
aa.(lp0
(lp1
S'saveWebContents'
p2
aS'005268'
p3
aa.(lp0
(lp1
S'saveWebContents'
p2
aS'005267'
p3
aa.(lp0
(lp1
S'saveWebContents'
p2
aS'004505'
p3
aa.(lp0
.(lp0
(lp1
S'saveWebContents'
p2
aS'005396'
p3
aa.(lp0
.(lp0
(lp1
S'saveWebContents'
p2
aS'040035'
p3
aa.(lp0
(lp1
S'saveWebContents'
p2
aS'003658'
p3
aa.(lp0
(lp1
S'saveWebContents'
p2
aS'002862'
p3
aa.(lp0
.(lp0
(lp1
S'saveWebContents'
p2
aS'004394'
p3
aa.(lp0
(lp1
S'saveWebContents'
p2
aS'005482'
p3
aa.(lp0
(lp1
S'saveWebContents'
p2
aS'040035'
p3
aa.(lp0
(lp1
S'saveWebContents'
p2
aS'040035'
p3
aa.(lp0
(lp1
S'saveWebContents'
p2
aS'040035'
p3
aa.(lp0
(lp1
S'saveWebContents'
p2
aS'040035'
p3
aa.(lp0
(lp1
S'saveWebContents'
p2
aS'040035'
p3
aa.(lp0
.(lp0
.(lp0
(lp1
S'saveWebContents'
p2
aS'040035'
p3
aa.(lp0
.(lp0
.(lp0
.(lp0
.(lp0
.(lp0
.(lp0
.(lp0
.(lp0
.(lp0
.(lp0
.(lp0
.(lp0
.(lp0
.(lp0
.(lp0
.(lp0
.(lp0
.(lp0
.(lp0
.(lp0
.(lp0
.(lp0
.(lp0
.(lp0
.(lp0
.(lp0
.(lp0
.(lp0
.(lp0
.(lp0
.(lp0
.(lp0
.(lp0
.(lp0
.(lp0
.(lp0
.(lp0
.(lp0
.(lp0
.(lp0
.(lp0
.(lp0
.(lp0
.(lp0
.(lp0
.(lp0
.(lp0
.(lp0
.(lp0
.(lp0
.(lp0
.(lp0
.(lp0
.(lp0
.(lp0
.(lp0
.(lp0
.(lp0
.(lp0
.(lp0
.(lp0
.(lp0
.(lp0
.(lp0
.(lp0
.(lp0
.(lp0
.(lp0
.(lp0
.(lp0
.(lp0
.(lp0
.(lp0
.(lp0
.(lp0
.(lp0
.(lp0
.(lp0
.(lp0
.(lp0
.(lp0
.(lp0
.(lp0
.(lp0
.(lp0
(lp1
S'saveWebContents'
p2
aS'519022'
p3
aa.(lp0
.(lp0
.(lp0
.(lp0
.(lp0
.(lp0
.(lp0
.(lp0
.(lp0
.(lp0
.(lp0
.(lp0
.(lp0
.(lp0
.(lp0
.(lp0
.(lp0
.(lp0
.(lp0
.(lp0
.(lp0
.(lp0
.(lp0
.(lp0
.(lp0
.(lp0
.(lp0
.(lp0
.(lp0
.(lp0
.(lp0
.(lp0
.(lp0
.(lp0
(lp1
S'saveWebContents'
p2
aS'164205'
p3
aa.(lp0
.(lp0
.(lp0
.(lp0
.(lp0
.(lp0
.(lp0
.(lp0
.(lp0
.(lp0
.(lp0
.(lp0
.(lp0
.(lp0
.(lp0
.(lp0
.(lp0
(lp1
S'saveWebContents'
p2
aS'003120'
p3
aa.(lp0
.(lp0
.(lp0
.(lp0
.(lp0
.(lp0
.(lp0
.(lp0
.(lp0
.(lp0
.(lp0
.(lp0
.(lp0
.(lp0
.(lp0
.(lp0
.(lp0
.(lp0
.(lp0
.(lp0
.(lp0
.(lp0
.(lp0
.(lp0
.(lp0
.(lp0
.(lp0
.(lp0
.(lp0
.(lp0
.(lp0
.(lp0
.(lp0
.(lp0
.(lp0
.(lp0
.(lp0
.(lp0
.(lp0
.(lp0
.(lp0
.(lp0
.(lp0
.(lp0
.(lp0
.(lp0
.(lp0
.(lp0
.(lp0
.(lp0
.(lp0
.(lp0
.(lp0
.(lp0
.(lp0
.(lp0
.(lp0
.(lp0
.(lp0
.(lp0
.(lp0
.(lp0
.(lp0
.(lp0
.(lp0
.(lp0
.(lp0
.(lp0
.(lp0
.(lp0
.(lp0
.(lp0
.(lp0
.(lp0
.(lp0
.(lp0
.(lp0
.(lp0
.(lp0
.(lp0
.(lp0
.(lp0
.(lp0
.(lp0
.(lp0
.(lp0
.(lp0
.(lp0
.(lp0
.(lp0
.(lp0
.(lp0
.(lp0
(lp1
S'saveWebContents'
p2
aS'002036'
p3
aa.(lp0
.(lp0
.(lp0
.(lp0
.(lp0
.(lp0
.(lp0
.(lp0
.(lp0
.(lp0
.(lp0
.(lp0
.(lp0
.(lp0
.(lp0
.(lp0
.(lp0
.(lp0
.(lp0
.(lp0
.(lp0
.(lp0
.(lp0
.(lp0
.(lp0
.(lp0
.(lp0
.(lp0
.(lp0
.(lp0
.(lp0
(lp1
S'saveWebContents'
p2
aS'001796'
p3
aa.(lp0
.(lp0
.(lp0
.(lp0
.(lp0
.(lp0
.(lp0
.(lp0
.(lp0
.(lp0
.(lp0
.(lp0
.(lp0
.(lp0
.(lp0
(lp1
S'saveWebContents'
p2
aS'001777'
p3
aa.(lp0
.(lp0
.(lp0
.(lp0
.(lp0
.(lp0
.(lp0
.(lp0
.(lp0
.(lp0
.(lp0
.(lp0
.(lp0
.(lp0
.(lp0
.(lp0
.(lp0
.(lp0
.(lp0
.(lp0
.(lp0
.(lp0
(lp1
S'saveWebContents'
p2
aS'000063'
p3
aa.(lp0
.(lp0
.(lp0
.(lp0
.(lp0
.(lp0
.(lp0
.(lp0
.(lp0
.(lp0
.(lp0
.(lp0
.(lp0
.(lp0
.(lp0
.(lp0
.(lp0
.(lp0
.(lp0
.(lp0
.(lp0
.(lp0
.(lp0
.(lp0
.(lp0
.(lp0
.(lp0
.(lp0
.(lp0
.(lp0
.(lp0
.(lp0
.(lp0
.(lp0
.(lp0
.(lp0
.(lp0
.(lp0
.(lp0
.(lp0
.(lp0
.(lp0
.(lp0
.(lp0
.(lp0
.(lp0
.(lp0
.(lp0
.(lp0
.(lp0
.(lp0
.(lp0
.(lp0
.(lp0
.(lp0
.(lp0
.(lp0
.(lp0
.(lp0
.(lp0
.(lp0
.(lp0
.(lp0
.(lp0
.(lp0
.(lp0
.(lp0
.(lp0
.(lp0
.(lp0
.(lp0
.(lp0
.(lp0
.(lp0
.(lp0
.(lp0
.(lp0
.(lp0
.(lp0
(lp1
S'saveWebContents'
p2
aS'001638'
p3
aa.(lp0
.(lp0
.(lp0
.(lp0
.(lp0
.(lp0
.(lp0
.(lp0
.(lp0
.(lp0
.(lp0
.(lp0
.(lp0
.(lp0
.(lp0
.(lp0
.(lp0
.(lp0
.(lp0
.(lp0
.(lp0
.(lp0
.(lp0
.(lp0
.(lp0
.(lp0
.(lp0
.(lp0
.(lp0
.(lp0
.(lp0
.(lp0
.(lp0
.(lp0
.(lp0
.(lp0
.(lp0
.(lp0
.(lp0
.(lp0
.(lp0
.(lp0
.(lp0
.(lp0
.(lp0
.(lp0
.(lp0
.(lp0
.(lp0
.(lp0
.(lp0
.(lp0
.(lp0
.(lp0
.(lp0
(lp1
S'saveWebContents'
p2
aS'000986'
p3
aa.(lp0
.(lp0
.(lp0
.(lp0
.(lp0
.(lp0
.(lp0
.(lp0
.(lp0
.(lp0
.(lp0
.(lp0
.(lp0
.(lp0
.(lp0
.(lp0
.(lp0
.(lp0
(lp1
S'saveWebContents'
p2
aS'001891'
p3
aa.(lp0
.(lp0
.(lp0
.(lp0
.(lp0
.(lp0
.(lp0
.(lp0
.(lp0
.(lp0
.(lp0
.(lp0
(lp1
S'saveWebContents'
p2
aS'001997'
p3
aa.(lp0
.(lp0
.(lp0
.(lp0
.(lp0
.(lp0
.(lp0
.(lp0
.(lp0
.(lp0
.(lp0
.(lp0
.(lp0
.(lp0
.(lp0
.(lp0
.(lp0
.(lp0
.(lp0
.(lp0
.(lp0
.(lp0
.(lp0
.(lp0
.(lp0
.(lp0
.(lp0
.(lp0
.(lp0
.(lp0
.(lp0
.(lp0
.(lp0
.(lp0
.(lp0
(lp1
S'saveWebContents'
p2
aS'002196'
p3
aa.(lp0
.(lp0
.(lp0
.(lp0
.(lp0
.(lp0
.(lp0
.(lp0
.(lp0
.(lp0
.(lp0
.(lp0
.(lp0
.(lp0
.(lp0
.(lp0
.(lp0
.(lp0
.(lp0
.(lp0
.(lp0
.(lp0
.(lp0
.(lp0
.(lp0
.(lp0
.(lp0
.(lp0
.(lp0
.(lp0
.(lp0
.(lp0
.(lp0
.(lp0
.(lp0
.(lp0
.(lp0
.(lp0
.(lp0
.(lp0
.(lp0
.(lp0
.(lp0
.(lp0
.(lp0
.(lp0
.(lp0
.(lp0
.(lp0
(lp1
S'saveWebContents'
p2
aS'004407'
p3
aa.(lp0
.(lp0
.(lp0
.(lp0
.(lp0
.(lp0
.(lp0
.(lp0
.(lp0
.(lp0
.(lp0
.(lp0
.(lp0
.(lp0
.(lp0
.(lp0
.(lp0
.(lp0
.(lp0
.(lp0
.(lp0
.(lp0
.(lp0
(lp1
S'saveWebContents'
p2
aS'519224'
p3
aa.(lp0
.(lp0
.(lp0
.(lp0
.(lp0
.(lp0
.(lp0
.(lp0
.(lp0
.(lp0
.(lp0
.(lp0
.(lp0
.(lp0
.(lp0
.(lp0
.(lp0
.(lp0
.(lp0
(lp1
S'parserWebContents'
p2
aS'040035'
p3
aa.(lp0
.(lp0
.(lp0
.(lp0
.(lp0
.(lp0
.(lp0
.(lp0
.(lp0
(lp1
S'saveWebContents'
p2
aS'001890'
p3
aa.(lp0
.(lp0
.(lp0
.(lp0
.(lp0
.(lp0
.(lp0
.(lp0
.(lp0
.(lp0
.(lp0
.(lp0
.(lp0
.(lp0
.(lp0
.(lp0
.(lp0
.(lp0
.(lp0
.(lp0
.(lp0
.(lp0
.(lp0
.(lp0
.(lp0
.(lp0
.(lp0
.(lp0
.(lp0
.(lp0
.(lp0
.(lp0
.(lp0
.(lp0
.(lp0
.(lp0
.(lp0
.(lp0
.(lp0
.(lp0
.(lp0
.(lp0
.(lp0
.(lp0
.(lp0
.(lp0
.(lp0
.(lp0
.(lp0
.(lp0
.(lp0
.(lp0
.(lp0
.(lp0
.(lp0
.(lp0
.(lp0
.(lp0
.(lp0
.(lp0
.(lp0
.(lp0
.(lp0
.(lp0
.(lp0
.(lp0
.(lp0
.(lp0
.(lp0
.(lp0
.(lp0
.(lp0
.(lp0
.(lp0
.(lp0
.(lp0
.(lp0
.(lp0
.(lp0
.(lp0
.(lp0
.(lp0
.(lp0
.(lp0
.(lp0
.(lp0
.(lp0
.(lp0
.(lp0
.(lp0
.(lp0
.(lp0
.(lp0
.(lp0
.(lp0
.(lp0
.(lp0
.(lp0
.(lp0
.(lp0
.(lp0
.(lp0
.(lp0
.(lp0
.(lp0
.(lp0
.(lp0
.(lp0
.(lp0
.(lp0
.(lp0
.(lp0
.(lp0
.(lp0
.(lp0
.(lp0
.(lp0
.(lp0
.(lp0
.(lp0
.(lp0
.(lp0
.(lp0
.(lp0
.(lp0
.(lp0
.(lp0
.(lp0
.(lp0
.(lp0
.(lp0
.(lp0
.(lp0
.(lp0
.(lp0
.(lp0
(lp1
S'saveWebContents'
p2
aS'000692'
p3
aa.(lp0
.(lp0
.(lp0
.(lp0
.(lp0
.(lp0
.(lp0
.(lp0
(lp1
S'saveWebContents'
p2
aS'519629'
p3
aa.(lp0
.(lp0
.(lp0
.(lp0
.(lp0
.(lp0
.(lp0
.(lp0
.(lp0
.(lp0
.(lp0
.(lp0
.(lp0
.(lp0
.(lp0
.(lp0
.(lp0
.(lp0
.(lp0
.(lp0
.(lp0
.(lp0
.(lp0
.(lp0
.(lp0
.(lp0
.(lp0
.(lp0
.(lp0
.(lp0
.(lp0
.(lp0
(lp1
S'saveWebContents'
p2
aS'002139'
p3
aa.(lp0
.(lp0
.(lp0
.(lp0
.(lp0
.(lp0
.(lp0
.(lp0
.(lp0
.(lp0
.(lp0
.(lp0
.(lp0
.(lp0
.(lp0
.(lp0
.(lp0
.(lp0
.(lp0
.(lp0
.(lp0
(lp1
S'saveWebContents'
p2
aS'002041'
p3
aa.(lp0
.(lp0
.(lp0
.(lp0
.(lp0
.(lp0
.(lp0
.(lp0
.(lp0
.(lp0
.(lp0
.(lp0
.(lp0
.(lp0
.(lp0
.(lp0
.(lp0
.(lp0
.(lp0
.(lp0
.(lp0
.(lp0
.(lp0
.(lp0
.(lp0
.(lp0
.(lp0
.(lp0
.(lp0
.(lp0
.(lp0
(lp1
S'saveWebContents'
p2
aS'005206'
p3
aa.(lp0
.(lp0
.(lp0
.(lp0
.(lp0
.(lp0
.(lp0
.(lp0
.(lp0
(lp1
S'saveWebContents'
p2
aS'002071'
p3
aa.(lp0
.(lp0
.(lp0
.(lp0
.(lp0
.(lp0
.(lp0
.(lp0
.(lp0
.(lp0
.(lp0
.(lp0
.(lp0
.(lp0
.(lp0
.(lp0
.(lp0
.(lp0
.(lp0
.(lp0
.(lp0
.(lp0
.(lp0
.(lp0
.(lp0
.(lp0
.(lp0
.(lp0
.(lp0
.(lp0
.(lp0
.(lp0
.(lp0
.(lp0
.(lp0
.(lp0
.(lp0
.(lp0
.(lp0
.(lp0
.(lp0
.(lp0
.(lp0
.(lp0
.(lp0
.(lp0
.(lp0
.(lp0
.(lp0
.(lp0
.(lp0
.(lp0
.(lp0
.(lp0
.(lp0
.(lp0
.(lp0
.(lp0
.(lp0
.(lp0
.(lp0
.(lp0
.(lp0
.(lp0
.(lp0
.(lp0
.(lp0
.(lp0
.(lp0
.(lp0
.(lp0
.(lp0
.(lp0
.(lp0
.(lp0
.(lp0
.(lp0
.(lp0
.(lp0
.(lp0
.(lp0
(lp1
S'saveWebContents'
p2
aS'002416'
p3
aa.(lp0
.(lp0
.(lp0
.(lp0
.(lp0
.(lp0
.(lp0
.(lp0
.(lp0
.(lp0
.(lp0
.(lp0
.(lp0
.(lp0
.(lp0
.(lp0
(lp1
S'saveWebContents'
p2
aS'001686'
p3
aa.(lp0
.(lp0
.(lp0
.(lp0
.(lp0
.(lp0
.(lp0
.(lp0
.(lp0
.(lp0
.(lp0
.(lp0
.(lp0
.(lp0
.(lp0
.(lp0
.(lp0
.(lp0
.(lp0
.(lp0
.(lp0
.(lp0
.(lp0
.(lp0
.(lp0
.(lp0
.(lp0
.(lp0
.(lp0
.(lp0
.(lp0
.(lp0
.(lp0
.(lp0
.(lp0
.(lp0
.(lp0
.(lp0
(lp1
S'saveWebContents'
p2
aS'003951'
p3
aa.(lp0
.(lp0
.(lp0
.(lp0
.(lp0
.(lp0
.(lp0
.(lp0
.(lp0
.(lp0
.(lp0
.(lp0
.(lp0
.(lp0
.(lp0
.(lp0
.(lp0
.(lp0
.(lp0
.(lp0
.(lp0
.(lp0
.(lp0
.(lp0
.(lp0
.(lp0
.(lp0
.(lp0
.(lp0
.(lp0
.(lp0
.(lp0
.(lp0
.(lp0
.(lp0
.(lp0
.(lp0
.(lp0
.(lp0
.(lp0
.(lp0
.(lp0
.(lp0
.(lp0
.(lp0
.(lp0
.(lp0
.(lp0
.(lp0
.(lp0
.(lp0
.(lp0
.(lp0
.(lp0
.(lp0
.(lp0
.(lp0
.(lp0
.(lp0
.(lp0
.(lp0
.(lp0
.(lp0
.(lp0
.(lp0
(lp1
S'saveWebContents'
p2
aS'002941'
p3
aa.(lp0
.(lp0
.(lp0
.(lp0
.(lp0
.(lp0
.(lp0
.(lp0
.(lp0
.(lp0
(lp1
S'saveWebContents'
p2
aS'004560'
p3
aa.(lp0
.(lp0
.(lp0
.(lp0
.(lp0
.(lp0
.(lp0
.(lp0
.(lp0
.(lp0
.(lp0
.(lp0
.(lp0
.(lp0
.(lp0
.(lp0
.(lp0
.(lp0
(lp1
S'saveWebContents'
p2
aS'001328'
p3
aa.(lp0
.(lp0
.(lp0
.(lp0
.(lp0
.(lp0
.(lp0
.(lp0
.(lp0
.(lp0
.(lp0
.(lp0
.(lp0
.(lp0
.(lp0
.(lp0
.(lp0
.(lp0
.(lp0
.(lp0
.(lp0
.(lp0
.(lp0
.(lp0
.(lp0
.(lp0
.(lp0
.(lp0
.(lp0
.(lp0
.(lp0
.(lp0
.(lp0
.(lp0
.(lp0
.(lp0
.(lp0
.(lp0
.(lp0
.(lp0
.(lp0
.(lp0
.(lp0
.(lp0
.(lp0
.(lp0
.(lp0
.(lp0
.(lp0
.(lp0
.(lp0
.(lp0
.(lp0
.(lp0
.(lp0
.(lp0
.(lp0
.(lp0
.(lp0
.(lp0
.(lp0
.(lp0
.(lp0
.(lp0
(lp1
S'saveWebContents'
p2
aS'001331'
p3
aa.(lp0
.(lp0
.(lp0
.(lp0
.(lp0
.(lp0
.(lp0
.(lp0
.(lp0
.(lp0
.(lp0
.(lp0
.(lp0
.(lp0
.(lp0
.(lp0
.(lp0
.(lp0
.(lp0
.(lp0
.(lp0
.(lp0
.(lp0
.(lp0
.(lp0
.(lp0
.(lp0
.(lp0
.(lp0
.(lp0
(lp1
S'saveWebContents'
p2
aS'001454'
p3
aa.(lp0
.(lp0
.(lp0
.(lp0
.(lp0
.(lp0
.(lp0
.(lp0
.(lp0
.(lp0
.(lp0
.(lp0
.(lp0
.(lp0
.(lp0
.(lp0
.(lp0
.(lp0
.(lp0
.(lp0
.(lp0
.(lp0
.(lp0
.(lp0
.(lp0
.(lp0
.(lp0
.(lp0
.(lp0
.(lp0
.(lp0
.(lp0
.(lp0
.(lp0
.(lp0
.(lp0
.(lp0
(lp1
S'saveWebContents'
p2
aS'000215'
p3
aa.(lp0
.(lp0
.(lp0
.(lp0
.(lp0
.(lp0
.(lp0
(lp1
S'saveWebContents'
p2
aS'002054'
p3
aa.(lp0
.(lp0
.(lp0
.(lp0
.(lp0
.(lp0
.(lp0
.(lp0
.(lp0
.(lp0
.(lp0
.(lp0
.(lp0
.(lp0
.(lp0
.(lp0
.(lp0
.(lp0
.(lp0
.(lp0
.(lp0
.(lp0
.(lp0
.(lp0
.(lp0
.(lp0
.(lp0
.(lp0
.(lp0
.(lp0
.(lp0
.(lp0
.(lp0
.(lp0
.(lp0
.(lp0
.(lp0
.(lp0
.(lp0
.(lp0
.(lp0
.(lp0
.(lp0
.(lp0
.(lp0
(lp1
S'saveWebContents'
p2
aS'001379'
p3
aa.(lp0
.(lp0
(lp1
S'saveWebContents'
p2
aS'002087'
p3
aa.(lp0
.(lp0
.(lp0
.(lp0
.(lp0
.(lp0
.(lp0
.(lp0
.(lp0
.(lp0
.(lp0
.(lp0
.(lp0
.(lp0
.(lp0
.(lp0
.(lp0
.(lp0
.(lp0
.(lp0
.(lp0
.(lp0
.(lp0
.(lp0
.(lp0
.(lp0
.(lp0
.(lp0
.(lp0
.(lp0
.(lp0
.(lp0
.(lp0
.(lp0
.(lp0
(lp1
S'saveWebContents'
p2
aS'001727'
p3
aa.(lp0
.(lp0
.(lp0
.(lp0
.(lp0
.(lp0
.(lp0
.(lp0
.(lp0
.(lp0
.(lp0
.(lp0
.(lp0
.(lp0
.(lp0
.(lp0
.(lp0
.(lp0
.(lp0
.(lp0
.(lp0
.(lp0
.(lp0
.(lp0
.(lp0
.(lp0
.(lp0
.(lp0
.(lp0
.(lp0
.(lp0
.(lp0
.(lp0
.(lp0
.(lp0
.(lp0
.(lp0
.(lp0
.(lp0
.(lp0
.(lp0
.(lp0
.(lp0
.(lp0
.(lp0
.(lp0
.(lp0
.(lp0
.(lp0
.(lp0
.(lp0
.(lp0
.(lp0
.(lp0
.(lp0
.(lp0
(lp1
S'saveWebContents'
p2
aS'002097'
p3
aa.(lp0
(lp1
S'saveWebContents'
p2
aS'001284'
p3
aa.(lp0
.(lp0
.(lp0
.(lp0
.(lp0
.(lp0
.(lp0
(lp1
S'saveWebContents'
p2
aS'002417'
p3
aa.(lp0
.(lp0
.(lp0
.(lp0
.(lp0
.(lp0
.(lp0
.(lp0
.(lp0
.(lp0
.(lp0
.(lp0
.(lp0
.(lp0
.(lp0
.(lp0
.(lp0
.(lp0
.(lp0
.(lp0
.(lp0
.(lp0
.(lp0
.(lp0
.(lp0
.(lp0
.(lp0
.(lp0
.(lp0
.(lp0
.(lp0
.(lp0
.(lp0
.(lp0
.(lp0
.(lp0
.(lp0
.(lp0
.(lp0
.(lp0
.(lp0
.(lp0
.(lp0
.(lp0
.(lp0
.(lp0
.(lp0
.(lp0
.(lp0
.(lp0
.(lp0
.(lp0
.(lp0
.(lp0
.(lp0
.(lp0
.(lp0
.(lp0
.(lp0
(lp1
S'saveWebContents'
p2
aS'002193'
p3
aa.(lp0
.(lp0
.(lp0
.(lp0
.(lp0
.(lp0
.(lp0
.(lp0
.(lp0
.(lp0
.(lp0
.(lp0
.(lp0
.(lp0
(lp1
S'saveWebContents'
p2
aS'160226'
p3
aa.(lp0
.(lp0
.(lp0
.(lp0
.(lp0
.(lp0
.(lp0
.(lp0
.(lp0
.(lp0
.(lp0
.(lp0
.(lp0
.(lp0
.(lp0
.(lp0
.(lp0
.(lp0
.(lp0
.(lp0
.(lp0
.(lp0
.(lp0
.(lp0
.(lp0
.(lp0
.(lp0
.(lp0
.(lp0
.(lp0
.(lp0
.(lp0
.(lp0
.(lp0
.(lp0
.(lp0
.(lp0
.(lp0
.(lp0
.(lp0
.(lp0
.(lp0
.(lp0
.(lp0
.(lp0
.(lp0
.(lp0
.(lp0
.(lp0
.(lp0
.(lp0
.(lp0
.(lp0
.(lp0
.(lp0
.(lp0
.(lp0
.(lp0
.(lp0
.(lp0
.(lp0
.(lp0
.(lp0
.(lp0
.(lp0
.(lp0
.(lp0
.(lp0
.(lp0
.(lp0
.(lp0
.(lp0
.(lp0
.(lp0
.(lp0
.(lp0
.(lp0
(lp1
S'saveWebContents'
p2
aS'002172'
p3
aa.(lp0
.(lp0
.(lp0
.(lp0
.(lp0
(lp1
S'saveWebContents'
p2
aS'003143'
p3
aa.(lp0
.(lp0
.(lp0
(lp1
S'saveWebContents'
p2
aS'002833'
p3
aa.(lp0
.(lp0
.(lp0
.(lp0
.(lp0
.(lp0
.(lp0
.(lp0
.(lp0
.(lp0
.(lp0
.(lp0
.(lp0
.(lp0
.(lp0
.(lp0
.(lp0
.(lp0
.(lp0
.(lp0
.(lp0
.(lp0
.(lp0
(lp1
S'saveWebContents'
p2
aS'002515'
p3
aa.(lp0
.(lp0
.(lp0
.(lp0
.(lp0
.(lp0
.(lp0
.(lp0
(lp1
S'saveWebContents'
p2
aS'002178'
p3
aa.(lp0
.(lp0
.(lp0
(lp1
S'saveWebContents'
p2
aS'002582'
p3
aa.(lp0
.(lp0
.(lp0
.(lp0
(lp1
S'saveWebContents'
p2
aS'000511'
p3
aa.(lp0
.(lp0
.(lp0
.(lp0
.(lp0
.(lp0
.(lp0
.(lp0
.(lp0
.(lp0
.(lp0
.(lp0
.(lp0
.(lp0
.(lp0
.(lp0
.(lp0
.(lp0
.(lp0
.(lp0
.(lp0
.(lp0
.(lp0
.(lp0
.(lp0
.(lp0
.(lp0
.(lp0
(lp1
S'saveWebContents'
p2
aS'002671'
p3
aa.(lp0
.(lp0
.(lp0
.(lp0
.(lp0
.(lp0
.(lp0
.(lp0
.(lp0
.(lp0
.(lp0
.(lp0
.(lp0
.(lp0
.(lp0
.(lp0
.(lp0
.(lp0
.(lp0
.(lp0
.(lp0
.(lp0
.(lp0
.(lp0
.(lp0
.(lp0
.(lp0
.(lp0
.(lp0
.(lp0
.(lp0
.(lp0
.(lp0
.(lp0
.(lp0
.(lp0
.(lp0
.(lp0
(lp1
S'saveWebContents'
p2
aS'519183'
p3
aa.(lp0
.(lp0
.(lp0
.(lp0
.(lp0
.(lp0
.(lp0
.(lp0
.(lp0
.(lp0
.(lp0
.(lp0
.(lp0
.(lp0
(lp1
S'saveWebContents'
p2
aS'002025'
p3
aa.(lp0
.(lp0
.(lp0
.(lp0
.(lp0
.(lp0
.(lp0
.(lp0
.(lp0
.(lp0
(lp1
S'saveWebContents'
p2
aS'519177'
p3
aa.(lp0
.(lp0
(lp1
S'saveWebContents'
p2
aS'004176'
p3
aa.(lp0
.(lp0
.(lp0
.(lp0
.(lp0
.(lp0
.(lp0
.(lp0
.(lp0
.(lp0
.(lp0
.(lp0
.(lp0
.(lp0
.(lp0
(lp1
S'saveWebContents'
p2
aS'003804'
p3
aa.(lp0
.(lp0
.(lp0
.(lp0
.(lp0
.(lp0
.(lp0
(lp1
S'saveWebContents'
p2
aS'002728'
p3
aa.(lp0
.(lp0
(lp1
S'saveWebContents'
p2
aS'210010'
p3
aa.(lp0
.(lp0
.(lp0
.(lp0
(lp1
S'parserWebContents'
p2
aS'005867'
p3
aa.(lp0
.(lp0
.(lp0
.(lp0
.(lp0
.(lp0
.(lp0
.(lp0
.(lp0
.(lp0
.(lp0
.(lp0
.(lp0
.(lp0
.(lp0
.(lp0
.(lp0
.(lp0
.(lp0
(lp1
S'saveWebContents'
p2
aS'001597'
p3
aa.(lp0
.(lp0
.(lp0
.(lp0
.(lp0
.(lp0
.(lp0
(lp1
S'saveWebContents'
p2
aS'002061'
p3
aa.(lp0
.(lp0
.(lp0
.(lp0
(lp1
S'saveWebContents'
p2
aS'002192'
p3
aa.(lp0
.(lp0
.(lp0
.(lp0
.(lp0
.(lp0
.(lp0
.(lp0
.(lp0
.(lp0
.(lp0
.(lp0
(lp1
S'parserWebContents'
p2
aS'005918'
p3
aa.(lp0
.(lp0
.(lp0
.(lp0
.(lp0
.(lp0
.(lp0
(lp1
S'parserWebContents'
p2
aS'005152'
p3
aa.(lp0
.(lp0
.(lp0
.(lp0
.(lp0
.(lp0
.(lp0
.(lp0
.(lp0
.(lp0
.(lp0
.(lp0
.(lp0
.(lp0
.(lp0
.(lp0
.(lp0
.(lp0
.(lp0
.(lp0
.(lp0
.(lp0
.(lp0
.(lp0
.(lp0
(lp1
S'saveWebContents'
p2
aS'002774'
p3
aa.(lp0
.(lp0
.(lp0
.(lp0
.(lp0
.(lp0
.(lp0
.(lp0
.(lp0
.(lp0
.(lp0
.(lp0
(lp1
S'saveWebContents'
p2
aS'003247'
p3
aa.(lp0
.(lp0
.(lp0
.(lp0
.(lp0
.(lp0
.(lp0
.(lp0
.(lp0
.(lp0
.(lp0
.(lp0
.(lp0
.(lp0
.(lp0
.(lp0
.(lp0
.(lp0
.(lp0
.(lp0
.(lp0
.(lp0
.(lp0
.(lp0
.(lp0
.(lp0
.(lp0
.(lp0
.(lp0
.(lp0
.(lp0
.(lp0
.(lp0
.(lp0
.(lp0
.(lp0
.(lp0
.(lp0
.(lp0
.(lp0
.(lp0
.(lp0
.(lp0
.(lp0
.(lp0
(lp1
S'saveWebContents'
p2
aS'004746'
p3
aa.(lp0
.(lp0
.(lp0
.(lp0
.(lp0
.(lp0
.(lp0
.(lp0
.(lp0
.(lp0
.(lp0
.(lp0
.(lp0
.(lp0
.(lp0
.(lp0
.(lp0
.(lp0
.(lp0
.(lp0
.(lp0
.(lp0
.(lp0
.(lp0
.(lp0
.(lp0
.(lp0
.(lp0
(lp1
S'saveWebContents'
p2
aS'003922'
p3
aa.(lp0
.(lp0
.(lp0
.(lp0
.(lp0
.(lp0
.(lp0
.(lp0
.(lp0
.(lp0
.(lp0
.(lp0
.(lp0
.(lp0
.(lp0
.(lp0
.(lp0
.(lp0
.(lp0
.(lp0
.(lp0
.(lp0
(lp1
S'saveWebContents'
p2
aS'003141'
p3
aa.(lp0
.(lp0
.(lp0
.(lp0
.(lp0
.(lp0
.(lp0
.(lp0
.(lp0
.(lp0
.(lp0
.(lp0
.(lp0
.(lp0
.(lp0
.(lp0
.(lp0
.(lp0
.(lp0
(lp1
S'saveWebContents'
p2
aS'002365'
p3
aa.(lp0
.(lp0
.(lp0
.(lp0
.(lp0
.(lp0
.(lp0
.(lp0
.(lp0
.(lp0
.(lp0
.(lp0
.(lp0
.(lp0
.(lp0
.(lp0
.(lp0
.(lp0
.(lp0
(lp1
S'saveWebContents'
p2
aS'003205'
p3
aa.(lp0
.(lp0
.(lp0
.(lp0
.(lp0
.(lp0
.(lp0
.(lp0
.(lp0
.(lp0
.(lp0
.(lp0
.(lp0
.(lp0
.(lp0
.(lp0
.(lp0
.(lp0
.(lp0
.(lp0
.(lp0
.(lp0
.(lp0
.(lp0
.(lp0
.(lp0
.(lp0
.(lp0
.(lp0
.(lp0
.(lp0
.(lp0
.(lp0
.(lp0
.(lp0
.(lp0
.(lp0
.(lp0
.(lp0
.(lp0
.(lp0
(lp1
S'saveWebContents'
p2
aS'003579'
p3
aa.(lp0
(lp1
S'saveWebContents'
p2
aS'673073'
p3
aa.(lp0
.(lp0
.(lp0
(lp1
S'saveWebContents'
p2
aS'673083'
p3
aa.(lp0
.(lp0
.(lp0
(lp1
S'saveWebContents'
p2
aS'003798'
p3
aa.(lp0
(lp1
S'saveWebContents'
p2
aS'001406'
p3
aa.(lp0
.(lp0
(lp1
S'saveWebContents'
p2
aS'320022'
p3
aa.(lp0
.(lp0
.(lp0
.(lp0
.(lp0
.(lp0
.(lp0
.(lp0
.(lp0
.(lp0
.(lp0
.(lp0
.(lp0
(lp1
S'saveWebContents'
p2
aS'002162'
p3
aa.(lp0
.(lp0
.(lp0
.(lp0
.(lp0
.(lp0
.(lp0
.(lp0
.(lp0
.(lp0
.(lp0
.(lp0
.(lp0
.(lp0
.(lp0
.(lp0
.(lp0
.(lp0
.(lp0
.(lp0
.(lp0
.(lp0
.(lp0
.(lp0
.(lp0
.(lp0
(lp1
S'saveWebContents'
p2
aS'519650'
p3
aa.(lp0
.(lp0
.(lp0
.(lp0
.(lp0
.(lp0
.(lp0
.(lp0
.(lp0
.(lp0
.(lp0
.(lp0
.(lp0
.(lp0
.(lp0
.(lp0
.(lp0
.(lp0
.(lp0
.(lp0
.(lp0
(lp1
S'saveWebContents'
p2
aS'001147'
p3
aa.(lp0
.(lp0
.(lp0
.(lp0
.(lp0
.(lp0
.(lp0
.(lp0
.(lp0
.(lp0
.(lp0
.(lp0
.(lp0
.(lp0
.(lp0
.(lp0
.(lp0
.(lp0
.(lp0
.(lp0
(lp1
S'saveWebContents'
p2
aS'519775'
p3
aa.(lp0
.(lp0
.(lp0
.(lp0
.(lp0
.(lp0
.(lp0
.(lp0
.(lp0
(lp1
S'saveWebContents'
p2
aS'001338'
p3
aa.(lp0
.(lp0
.(lp0
.(lp0
.(lp0
.(lp0
.(lp0
.(lp0
.(lp0
.(lp0
.(lp0
.(lp0
.(lp0
.(lp0
.(lp0
.(lp0
.(lp0
.(lp0
.(lp0
.(lp0
.(lp0
.(lp0
.(lp0
.(lp0
.(lp0
.(lp0
.(lp0
.(lp0
.(lp0
.(lp0
.(lp0
.(lp0
.(lp0
.(lp0
.(lp0
.(lp0
.(lp0
.(lp0
.(lp0
(lp1
S'saveWebContents'
p2
aS'686869'
p3
aa.(lp0
.(lp0
.(lp0
.(lp0
.(lp0
.(lp0
.(lp0
.(lp0
.(lp0
.(lp0
.(lp0
.(lp0
.(lp0
.(lp0
.(lp0
.(lp0
.(lp0
.(lp0
.(lp0
.(lp0
.(lp0
.(lp0
.(lp0
.(lp0
.(lp0
.(lp0
.(lp0
.(lp0
.(lp0
.(lp0
.(lp0
.(lp0
.(lp0
.(lp0
.(lp0
.(lp0
(lp1
S'saveWebContents'
p2
aS'001572'
p3
aa.(lp0
.(lp0
.(lp0
.(lp0
(lp1
S'saveWebContents'
p2
aS'002117'
p3
aa.(lp0
.(lp0
.(lp0
.(lp0
.(lp0
.(lp0
.(lp0
.(lp0
.(lp0
.(lp0
.(lp0
(lp1
S'saveWebContents'
p2
aS'001571'
p3
aa.(lp0
.(lp0
.(lp0
.(lp0
.(lp0
.(lp0
.(lp0
.(lp0
.(lp0
.(lp0
.(lp0
.(lp0
.(lp0
.(lp0
.(lp0
.(lp0
.(lp0
.(lp0
.(lp0
.(lp0
.(lp0
.(lp0
.(lp0
.(lp0
(lp1
S'saveWebContents'
p2
aS'002136'
p3
aa.(lp0
.(lp0
.(lp0
.(lp0
.(lp0
.(lp0
.(lp0
(lp1
S'saveWebContents'
p2
aS'002089'
p3
aa.(lp0
.(lp0
.(lp0
.(lp0
.(lp0
.(lp0
.(lp0
(lp1
S'saveWebContents'
p2
aS'001444'
p3
aa.(lp0
(lp1
S'saveWebContents'
p2
aS'001423'
p3
aa.(lp0
.(lp0
.(lp0
.(lp0
(lp1
S'saveWebContents'
p2
aS'001206'
p3
aa.(lp0
.(lp0
.(lp0
.(lp0
.(lp0
.(lp0
.(lp0
.(lp0
.(lp0
.(lp0
.(lp0
.(lp0
.(lp0
.(lp0
(lp1
S'saveWebContents'
p2
aS'002233'
p3
aa.(lp0
.(lp0
.(lp0
.(lp0
.(lp0
.(lp0
.(lp0
.(lp0
.(lp0
.(lp0
(lp1
S'saveWebContents'
p2
aS'002441'
p3
aa.(lp0
.(lp0
.(lp0
.(lp0
(lp1
S'saveWebContents'
p2
aS'002039'
p3
aa.(lp0
.(lp0
.(lp0
.(lp0
.(lp0
(lp1
S'saveWebContents'
p2
aS'162715'
p3
aa.(lp0
.(lp0
.(lp0
.(lp0
.(lp0
(lp1
S'saveWebContents'
p2
aS'002026'
p3
aa.(lp0
.(lp0
.(lp0
.(lp0
.(lp0
.(lp0
.(lp0
.(lp0
.(lp0
.(lp0
.(lp0
.(lp0
(lp1
S'saveWebContents'
p2
aS'004157'
p3
aa.(lp0
.(lp0
.(lp0
.(lp0
.(lp0
.(lp0
.(lp0
.(lp0
.(lp0
.(lp0
.(lp0
.(lp0
.(lp0
.(lp0
(lp1
S'saveWebContents'
p2
aS'003594'
p3
aa.(lp0
.(lp0
.(lp0
.(lp0
.(lp0
.(lp0
.(lp0
.(lp0
.(lp0
.(lp0
.(lp0
.(lp0
.(lp0
.(lp0
.(lp0
.(lp0
.(lp0
.(lp0
(lp1
S'saveWebContents'
p2
aS'001446'
p3
aa.(lp0
.(lp0
.(lp0
.(lp0
.(lp0
.(lp0
(lp1
S'saveWebContents'
p2
aS'001427'
p3
aa.(lp0
.(lp0
.(lp0
.(lp0
.(lp0
.(lp0
(lp1
S'saveWebContents'
p2
aS'004158'
p3
aa.(lp0
.(lp0
.(lp0
.(lp0
.(lp0
.(lp0
.(lp0
.(lp0
.(lp0
.(lp0
.(lp0
.(lp0
.(lp0
.(lp0
.(lp0
.(lp0
.(lp0
.(lp0
.(lp0
.(lp0
.(lp0
.(lp0
.(lp0
.(lp0
.(lp0
.(lp0
.(lp0
.(lp0
.(lp0
(lp1
S'saveWebContents'
p2
aS'002339'
p3
aa.(lp0
.(lp0
.(lp0
.(lp0
.(lp0
.(lp0
.(lp0
.(lp0
.(lp0
.(lp0
.(lp0
.(lp0
.(lp0
.(lp0
.(lp0
.(lp0
.(lp0
.(lp0
.(lp0
(lp1
S'saveWebContents'
p2
aS'002060'
p3
aa.(lp0
.(lp0
.(lp0
.(lp0
.(lp0
.(lp0
.(lp0
.(lp0
.(lp0
.(lp0
.(lp0
.(lp0
.(lp0
.(lp0
.(lp0
.(lp0
.(lp0
.(lp0
.(lp0
.(lp0
.(lp0
.(lp0
.(lp0
.(lp0
.(lp0
(lp1
S'saveWebContents'
p2
aS'004367'
p3
aa.(lp0
.(lp0
.(lp0
.(lp0
.(lp0
.(lp0
.(lp0
.(lp0
.(lp0
.(lp0
.(lp0
.(lp0
.(lp0
.(lp0
.(lp0
.(lp0
.(lp0
.(lp0
.(lp0
.(lp0
.(lp0
.(lp0
.(lp0
.(lp0
.(lp0
(lp1
S'saveWebContents'
p2
aS'003218'
p3
aa.(lp0
.(lp0
.(lp0
.(lp0
(lp1
S'saveWebContents'
p2
aS'001939'
p3
aa.(lp0
.(lp0
.(lp0
.(lp0
.(lp0
.(lp0
.(lp0
.(lp0
.(lp0
.(lp0
.(lp0
.(lp0
.(lp0
.(lp0
.(lp0
.(lp0
.(lp0
.(lp0
.(lp0
.(lp0
.(lp0
.(lp0
.(lp0
.(lp0
.(lp0
.(lp0
(lp1
S'saveWebContents'
p2
aS'002059'
p3
aa.(lp0
.(lp0
.(lp0
.(lp0
.(lp0
.(lp0
.(lp0
.(lp0
.(lp0
.(lp0
.(lp0
.(lp0
.(lp0
.(lp0
.(lp0
.(lp0
.(lp0
.(lp0
.(lp0
.(lp0
.(lp0
.(lp0
(lp1
S'saveWebContents'
p2
aS'003927'
p3
aa.(lp0
.(lp0
.(lp0
.(lp0
.(lp0
.(lp0
.(lp0
.(lp0
.(lp0
.(lp0
.(lp0
.(lp0
.(lp0
.(lp0
.(lp0
.(lp0
.(lp0
.(lp0
.(lp0
.(lp0
(lp1
S'saveWebContents'
p2
aS'002865'
p3
aa.(lp0
.(lp0
.(lp0
.(lp0
.(lp0
.(lp0
.(lp0
.(lp0
.(lp0
.(lp0
.(lp0
.(lp0
.(lp0
.(lp0
.(lp0
.(lp0
(lp1
S'saveWebContents'
p2
aS'003282'
p3
aa.(lp0
.(lp0
.(lp0
.(lp0
.(lp0
(lp1
S'saveWebContents'
p2
aS'001337'
p3
aa.(lp0
.(lp0
.(lp0
.(lp0
(lp1
S'saveWebContents'
p2
aS'002092'
p3
aa.(lp0
.(lp0
.(lp0
.(lp0
.(lp0
.(lp0
.(lp0
.(lp0
(lp1
S'saveWebContents'
p2
aS'002013'
p3
aa.(lp0
.(lp0
.(lp0
.(lp0
(lp1
S'saveWebContents'
p2
aS'002099'
p3
aa.(lp0
(lp1
S'saveWebContents'
p2
aS'002114'
p3
aa.(lp0
.(lp0
.(lp0
.(lp0
.(lp0
.(lp0
.(lp0
.(lp0
.(lp0
.(lp0
.(lp0
.(lp0
.(lp0
.(lp0
.(lp0
.(lp0
.(lp0
.(lp0
.(lp0
.(lp0
.(lp0
.(lp0
.(lp0
.(lp0
.(lp0
.(lp0
.(lp0
.(lp0
.(lp0
.(lp0
.(lp0
.(lp0
.(lp0
.(lp0
.(lp0
.(lp0
.(lp0
.(lp0
.(lp0
.(lp0
.(lp0
.(lp0
.(lp0
.(lp0
.(lp0
.(lp0
.(lp0
.(lp0
.(lp0
.(lp0
.(lp0
.(lp0
.(lp0
.(lp0
.(lp0
(lp1
S'saveWebContents'
p2
aS'003014'
p3
aa.(lp0
.(lp0
.(lp0
.(lp0
.(lp0
.(lp0
.(lp0
.(lp0
.(lp0
.(lp0
.(lp0
.(lp0
.(lp0
.(lp0
.(lp0
.(lp0
(lp1
S'saveWebContents'
p2
aS'003255'
p3
aa.(lp0
.(lp0
.(lp0
.(lp0
.(lp0
.(lp0
.(lp0
.(lp0
.(lp0
.(lp0
.(lp0
.(lp0
.(lp0
.(lp0
.(lp0
.(lp0
.(lp0
.(lp0
.(lp0
.(lp0
.(lp0
.(lp0
.(lp0
.(lp0
.(lp0
.(lp0
.(lp0
.(lp0
.(lp0
.(lp0
.(lp0
.(lp0
.(lp0
.(lp0
.(lp0
(lp1
S'saveWebContents'
p2
aS'519746'
p3
aa.(lp0
.(lp0
.(lp0
.(lp0
.(lp0
.(lp0
.(lp0
.(lp0
.(lp0
.(lp0
.(lp0
.(lp0
.(lp0
.(lp0
.(lp0
.(lp0
.(lp0
.(lp0
.(lp0
.(lp0
.(lp0
.(lp0
.(lp0
.(lp0
.(lp0
.(lp0
.(lp0
.(lp0
.(lp0
.(lp0
.(lp0
.(lp0
.(lp0
.(lp0
(lp1
S'saveWebContents'
p2
aS'003812'
p3
aa.(lp0
.(lp0
.(lp0
.(lp0
.(lp0
.(lp0
.(lp0
.(lp0
.(lp0
.(lp0
.(lp0
.(lp0
.(lp0
.(lp0
.(lp0
.(lp0
(lp1
S'saveWebContents'
p2
aS'001330'
p3
aa.(lp0
.(lp0
.(lp0
.(lp0
.(lp0
.(lp0
.(lp0
.(lp0
.(lp0
.(lp0
.(lp0
.(lp0
.(lp0
.(lp0
(lp1
S'saveWebContents'
p2
aS'004728'
p3
aa.(lp0
.(lp0
.(lp0
.(lp0
.(lp0
.(lp0
.(lp0
.(lp0
.(lp0
.(lp0
.(lp0
.(lp0
.(lp0
.(lp0
.(lp0
.(lp0
.(lp0
.(lp0
.(lp0
.(lp0
.(lp0
.(lp0
.(lp0
.(lp0
.(lp0
.(lp0
.(lp0
.(lp0
.(lp0
.(lp0
.(lp0
.(lp0
.(lp0
.(lp0
.(lp0
.(lp0
.(lp0
.(lp0
.(lp0
.(lp0
(lp1
S'saveWebContents'
p2
aS'002665'
p3
aa.(lp0
.(lp0
.(lp0
.(lp0
.(lp0
.(lp0
.(lp0
.(lp0
.(lp0
.(lp0
.(lp0
.(lp0
.(lp0
(lp1
S'saveWebContents'
p2
aS'004238'
p3
aa.(lp0
.(lp0
.(lp0
.(lp0
.(lp0
.(lp0
.(lp0
.(lp0
(lp1
S'saveWebContents'
p2
aS'004043'
p3
aa.(lp0
.(lp0
.(lp0
.(lp0
.(lp0
.(lp0
.(lp0
.(lp0
.(lp0
.(lp0
.(lp0
(lp1
S'saveWebContents'
p2
aS'004289'
p3
aa.(lp0
.(lp0
.(lp0
(lp1
S'saveWebContents'
p2
aS'001522'
p3
aa.(lp0
.(lp0
.(lp0
.(lp0
.(lp0
.(lp0
.(lp0
(lp1
S'saveWebContents'
p2
aS'001164'
p3
aa.(lp0
.(lp0
(lp1
S'saveWebContents'
p2
aS'002163'
p3
aa.(lp0
(lp1
S'saveWebContents'
p2
aS'003204'
p3
aa.(lp0
.(lp0
.(lp0
.(lp0
.(lp0
.(lp0
.(lp0
.(lp0
.(lp0
.(lp0
.(lp0
.(lp0
.(lp0
.(lp0
.(lp0
.(lp0
.(lp0
.(lp0
.(lp0
.(lp0
.(lp0
.(lp0
.(lp0
.(lp0
.(lp0
.(lp0
.(lp0
.(lp0
.(lp0
(lp1
S'saveWebContents'
p2
aS'003268'
p3
aa.(lp0
.(lp0
.(lp0
.(lp0
.(lp0
.(lp0
.(lp0
.(lp0
.(lp0
.(lp0
.(lp0
.(lp0
.(lp0
.(lp0
(lp1
S'saveWebContents'
p2
aS'003360'
p3
aa.(lp0
.(lp0
.(lp0
.(lp0
.(lp0
.(lp0
.(lp0
.(lp0
.(lp0
.(lp0
.(lp0
.(lp0
.(lp0
.(lp0
.(lp0
.(lp0
.(lp0
.(lp0
.(lp0
.(lp0
(lp1
S'saveWebContents'
p2
aS'003372'
p3
aa.(lp0
.(lp0
.(lp0
.(lp0
.(lp0
.(lp0
.(lp0
.(lp0
.(lp0
.(lp0
.(lp0
.(lp0
.(lp0
.(lp0
.(lp0
.(lp0
.(lp0
.(lp0
.(lp0
.(lp0
.(lp0
.(lp0
.(lp0
.(lp0
.(lp0
.(lp0
.(lp0
.(lp0
.(lp0
(lp1
S'saveWebContents'
p2
aS'003787'
p3
aa.(lp0
.(lp0
.(lp0
.(lp0
.(lp0
.(lp0
.(lp0
.(lp0
.(lp0
.(lp0
(lp1
S'saveWebContents'
p2
aS'003337'
p3
aa.(lp0
.(lp0
.(lp0
.(lp0
(lp1
S'saveWebContents'
p2
aS'004637'
p3
aa.(lp0
.(lp0
.(lp0
.(lp0
.(lp0
.(lp0
.(lp0
.(lp0
.(lp0
.(lp0
(lp1
S'saveWebContents'
p2
aS'003361'
p3
aa.(lp0
(lp1
S'saveWebContents'
p2
aS'003732'
p3
aa.(lp0
.(lp0
.(lp0
.(lp0
(lp1
S'saveWebContents'
p2
aS'002533'
p3
aa.(lp0
.(lp0
.(lp0
.(lp0
.(lp0
.(lp0
.(lp0
.(lp0
.(lp0
.(lp0
.(lp0
.(lp0
.(lp0
.(lp0
.(lp0
.(lp0
.(lp0
.(lp0
.(lp0
.(lp0
.(lp0
.(lp0
.(lp0
.(lp0
.(lp0
.(lp0
.(lp0
.(lp0
.(lp0
.(lp0
.(lp0
.(lp0
.(lp0
.(lp0
.(lp0
.(lp0
.(lp0
.(lp0
.(lp0
.(lp0
.(lp0
.(lp0
.(lp0
.(lp0
.(lp0
.(lp0
.(lp0
.(lp0
.(lp0
.(lp0
.(lp0
.(lp0
.(lp0
.(lp0
.(lp0
.(lp0
.(lp0
.(lp0
.(lp0
.(lp0
.(lp0
.(lp0
.(lp0
.(lp0
.(lp0
.(lp0
(lp1
S'saveWebContents'
p2
aS'003816'
p3
aa.(lp0
.(lp0
.(lp0
.(lp0
.(lp0
.(lp0
.(lp0
.(lp0
.(lp0
.(lp0
.(lp0
.(lp0
.(lp0
.(lp0
.(lp0
.(lp0
.(lp0
.(lp0
.(lp0
.(lp0
.(lp0
.(lp0
.(lp0
.(lp0
.(lp0
.(lp0
.(lp0
.(lp0
.(lp0
.(lp0
.(lp0
(lp1
S'saveWebContents'
p2
aS'003929'
p3
aa.(lp0
.(lp0
.(lp0
.(lp0
.(lp0
.(lp0
.(lp0
.(lp0
.(lp0
.(lp0
.(lp0
.(lp0
.(lp0
.(lp0
.(lp0
.(lp0
.(lp0
.(lp0
.(lp0
.(lp0
.(lp0
.(lp0
.(lp0
(lp1
S'saveWebContents'
p2
aS'003912'
p3
aa.(lp0
.(lp0
.(lp0
.(lp0
.(lp0
.(lp0
.(lp0
.(lp0
.(lp0
.(lp0
.(lp0
.(lp0
.(lp0
.(lp0
.(lp0
.(lp0
.(lp0
.(lp0
.(lp0
.(lp0
.(lp0
.(lp0
.(lp0
.(lp0
.(lp0
.(lp0
.(lp0
.(lp0
.(lp0
.(lp0
.(lp0
.(lp0
(lp1
S'saveWebContents'
p2
aS'519760'
p3
aa.(lp0
.(lp0
(lp1
S'saveWebContents'
p2
aS'001315'
p3
aa.(lp0
.(lp0
.(lp0
.(lp0
.(lp0
.(lp0
.(lp0
.(lp0
.(lp0
.(lp0
.(lp0
.(lp0
.(lp0
.(lp0
.(lp0
.(lp0
.(lp0
.(lp0
.(lp0
.(lp0
.(lp0
.(lp0
.(lp0
.(lp0
.(lp0
(lp1
S'saveWebContents'
p2
aS'002534'
p3
aa.(lp0
.(lp0
.(lp0
.(lp0
.(lp0
.(lp0
.(lp0
.(lp0
.(lp0
.(lp0
.(lp0
.(lp0
.(lp0
(lp1
S'saveWebContents'
p2
aS'000423'
p3
aa.(lp0
.(lp0
.(lp0
.(lp0
.(lp0
.(lp0
.(lp0
.(lp0
.(lp0
.(lp0
.(lp0
.(lp0
(lp1
S'saveWebContents'
p2
aS'002131'
p3
aa.(lp0
.(lp0
.(lp0
.(lp0
.(lp0
.(lp0
.(lp0
.(lp0
.(lp0
.(lp0
.(lp0
.(lp0
.(lp0
.(lp0
.(lp0
.(lp0
.(lp0
.(lp0
.(lp0
.(lp0
.(lp0
.(lp0
.(lp0
.(lp0
.(lp0
.(lp0
.(lp0
.(lp0
.(lp0
.(lp0
.(lp0
(lp1
S'saveWebContents'
p2
aS'001347'
p3
aa.(lp0
.(lp0
.(lp0
.(lp0
.(lp0
.(lp0
.(lp0
.(lp0
.(lp0
.(lp0
(lp1
S'saveWebContents'
p2
aS'070037'
p3
aa.(lp0
(lp1
S'saveWebContents'
p2
aS'001142'
p3
aa.(lp0
.(lp0
.(lp0
.(lp0
.(lp0
.(lp0
.(lp0
.(lp0
(lp1
S'saveWebContents'
p2
aS'070038'
p3
aa.(lp0
.(lp0
.(lp0
.(lp0
.(lp0
.(lp0
.(lp0
.(lp0
.(lp0
.(lp0
.(lp0
.(lp0
.(lp0
.(lp0
.(lp0
.(lp0
(lp1
S'saveWebContents'
p2
aS'003216'
p3
aa.(lp0
.(lp0
(lp1
S'saveWebContents'
p2
aS'002227'
p3
aa.(lp0
.(lp0
.(lp0
.(lp0
.(lp0
.(lp0
.(lp0
.(lp0
.(lp0
.(lp0
.(lp0
.(lp0
.(lp0
.(lp0
.(lp0
.(lp0
.(lp0
(lp1
S'saveWebContents'
p2
aS'001194'
p3
aa.(lp0
(lp1
S'saveWebContents'
p2
aS'001488'
p3
aa.(lp0
.(lp0
.(lp0
.(lp0
.(lp0
.(lp0
.(lp0
.(lp0
.(lp0
.(lp0
.(lp0
.(lp0
.(lp0
.(lp0
.(lp0
.(lp0
.(lp0
.(lp0
.(lp0
.(lp0
.(lp0
.(lp0
(lp1
S'saveWebContents'
p2
aS'001904'
p3
aa.(lp0
.(lp0
.(lp0
.(lp0
.(lp0
.(lp0
.(lp0
.(lp0
.(lp0
.(lp0
.(lp0
(lp1
S'saveWebContents'
p2
aS'001407'
p3
aa.(lp0
.(lp0
.(lp0
.(lp0
(lp1
S'saveWebContents'
p2
aS'001507'
p3
aa.(lp0
(lp1
S'saveWebContents'
p2
aS'675011'
p3
aa.(lp0
.(lp0
.(lp0
.(lp0
.(lp0
.(lp0
.(lp0
.(lp0
.(lp0
.(lp0
(lp1
S'saveWebContents'
p2
aS'002309'
p3
aa.(lp0
.(lp0
.(lp0
.(lp0
(lp1
S'saveWebContents'
p2
aS'002015'
p3
aa.(lp0
.(lp0
.(lp0
.(lp0
.(lp0
(lp1
S'saveWebContents'
p2
aS'004118'
p3
aa.(lp0
.(lp0
.(lp0
.(lp0
.(lp0
.(lp0
.(lp0
.(lp0
.(lp0
.(lp0
.(lp0
(lp1
S'saveWebContents'
p2
aS'001489'
p3
aa.(lp0
.(lp0
.(lp0
.(lp0
.(lp0
.(lp0
.(lp0
.(lp0
.(lp0
.(lp0
.(lp0
.(lp0
.(lp0
.(lp0
.(lp0
.(lp0
.(lp0
.(lp0
.(lp0
.(lp0
.(lp0
.(lp0
.(lp0
.(lp0
.(lp0
.(lp0
.(lp0
.(lp0
.(lp0
.(lp0
.(lp0
.(lp0
.(lp0
.(lp0
.(lp0
.(lp0
.(lp0
.(lp0
.(lp0
(lp1
S'saveWebContents'
p2
aS'003734'
p3
aa.(lp0
.(lp0
.(lp0
.(lp0
.(lp0
.(lp0
.(lp0
.(lp0
.(lp0
.(lp0
.(lp0
.(lp0
.(lp0
.(lp0
.(lp0
.(lp0
.(lp0
.(lp0
.(lp0
.(lp0
.(lp0
.(lp0
.(lp0
.(lp0
.(lp0
.(lp0
.(lp0
.(lp0
.(lp0
.(lp0
.(lp0
.(lp0
.(lp0
.(lp0
.(lp0
.(lp0
.(lp0
.(lp0
.(lp0
.(lp0
.(lp0
.(lp0
.(lp0
.(lp0
.(lp0
.(lp0
.(lp0
.(lp0
.(lp0
.(lp0
.(lp0
.(lp0
.(lp0
.(lp0
(lp1
S'saveWebContents'
p2
aS'002548'
p3
aa.(lp0
.(lp0
(lp1
S'saveWebContents'
p2
aS'002046'
p3
aa.(lp0
.(lp0
.(lp0
.(lp0
.(lp0
.(lp0
.(lp0
.(lp0
.(lp0
.(lp0
.(lp0
.(lp0
.(lp0
.(lp0
.(lp0
.(lp0
.(lp0
.(lp0
.(lp0
.(lp0
.(lp0
.(lp0
.(lp0
.(lp0
.(lp0
.(lp0
.(lp0
.(lp0
.(lp0
.(lp0
.(lp0
.(lp0
.(lp0
.(lp0
.(lp0
(lp1
S'saveWebContents'
p2
aS'001724'
p3
aa.(lp0
.(lp0
.(lp0
.(lp0
(lp1
S'saveWebContents'
p2
aS'002091'
p3
aa.(lp0
.(lp0
.(lp0
.(lp0
.(lp0
.(lp0
.(lp0
.(lp0
.(lp0
.(lp0
.(lp0
.(lp0
.(lp0
.(lp0
.(lp0
.(lp0
.(lp0
.(lp0
.(lp0
.(lp0
.(lp0
.(lp0
.(lp0
.(lp0
.(lp0
.(lp0
.(lp0
.(lp0
.(lp0
.(lp0
.(lp0
.(lp0
(lp1
S'saveWebContents'
p2
aS'519743'
p3
aa.(lp0
.(lp0
.(lp0
.(lp0
.(lp0
.(lp0
.(lp0
.(lp0
.(lp0
.(lp0
.(lp0
.(lp0
.(lp0
.(lp0
.(lp0
.(lp0
.(lp0
.(lp0
.(lp0
.(lp0
.(lp0
(lp1
S'saveWebContents'
p2
aS'310378'
p3
aa.(lp0
.(lp0
.(lp0
.(lp0
.(lp0
.(lp0
.(lp0
.(lp0
.(lp0
.(lp0
.(lp0
.(lp0
.(lp0
.(lp0
.(lp0
.(lp0
.(lp0
.(lp0
.(lp0
(lp1
S'saveWebContents'
p2
aS'000723'
p3
aa.(lp0
.(lp0
.(lp0
.(lp0
.(lp0
.(lp0
.(lp0
.(lp0
.(lp0
.(lp0
.(lp0
.(lp0
.(lp0
.(lp0
.(lp0
.(lp0
.(lp0
.(lp0
.(lp0
.(lp0
.(lp0
.(lp0
.(lp0
.(lp0
.(lp0
.(lp0
.(lp0
(lp1
S'saveWebContents'
p2
aS'000889'
p3
aa.(lp0
.(lp0
.(lp0
.(lp0
.(lp0
.(lp0
.(lp0
.(lp0
.(lp0
.(lp0
(lp1
S'saveWebContents'
p2
aS'001661'
p3
aa.(lp0
.(lp0
.(lp0
.(lp0
.(lp0
.(lp0
.(lp0
.(lp0
.(lp0
(lp1
S'saveWebContents'
p2
aS'003040'
p3
aa.(lp0
.(lp0
.(lp0
.(lp0
.(lp0
.(lp0
.(lp0
.(lp0
.(lp0
.(lp0
.(lp0
.(lp0
(lp1
S'saveWebContents'
p2
aS'003305'
p3
aa.(lp0
.(lp0
.(lp0
.(lp0
.(lp0
.(lp0
.(lp0
.(lp0
.(lp0
.(lp0
.(lp0
.(lp0
.(lp0
.(lp0
.(lp0
.(lp0
.(lp0
.(lp0
.(lp0
(lp1
S'saveWebContents'
p2
aS'000257'
p3
aa.(lp0
.(lp0
.(lp0
.(lp0
.(lp0
.(lp0
.(lp0
.(lp0
.(lp0
.(lp0
.(lp0
.(lp0
.(lp0
.(lp0
.(lp0
.(lp0
.(lp0
.(lp0
(lp1
S'saveWebContents'
p2
aS'001872'
p3
aa.(lp0
.(lp0
.(lp0
.(lp0
.(lp0
.(lp0
.(lp0
.(lp0
.(lp0
.(lp0
.(lp0
.(lp0
.(lp0
.(lp0
.(lp0
.(lp0
.(lp0
.(lp0
.(lp0
.(lp0
.(lp0
.(lp0
.(lp0
.(lp0
.(lp0
.(lp0
.(lp0
.(lp0
.(lp0
.(lp0
.(lp0
.(lp0
.(lp0
.(lp0
.(lp0
.(lp0
.(lp0
.(lp0
.(lp0
.(lp0
.(lp0
.(lp0
.(lp0
.(lp0
.(lp0
.(lp0
.(lp0
.(lp0
.(lp0
.(lp0
.(lp0
.(lp0
.(lp0
.(lp0
.(lp0
.(lp0
(lp1
S'parserWebContents'
p2
aS'005673'
p3
aa.(lp0
.(lp0
.(lp0
.(lp0
.(lp0
.(lp0
.(lp0
.(lp0
.(lp0
.(lp0
.(lp0
.(lp0
.(lp0
.(lp0
.(lp0
.(lp0
.(lp0
.(lp0
.(lp0
.(lp0
(lp1
S'saveWebContents'
p2
aS'160523'
p3
aa.(lp0
.(lp0
.(lp0
.(lp0
.(lp0
.(lp0
(lp1
S'saveWebContents'
p2
aS'002794'
p3
aa.(lp0
.(lp0
.(lp0
.(lp0
.(lp0
.(lp0
.(lp0
.(lp0
.(lp0
.(lp0
.(lp0
.(lp0
.(lp0
.(lp0
.(lp0
.(lp0
.(lp0
.(lp0
.(lp0
.(lp0
.(lp0
.(lp0
.(lp0
.(lp0
.(lp0
.(lp0
.(lp0
.(lp0
.(lp0
.(lp0
.(lp0
.(lp0
.(lp0
.(lp0
.(lp0
.(lp0
.(lp0
.(lp0
.(lp0
.(lp0
.(lp0
.(lp0
.(lp0
.(lp0
.(lp0
.(lp0
.(lp0
.(lp0
.(lp0
.(lp0
.(lp0
.(lp0
.(lp0
.(lp0
.(lp0
.(lp0
.(lp0
.(lp0
.(lp0
.(lp0
.(lp0
.(lp0
.(lp0
.(lp0
.(lp0
.(lp0
.(lp0
.(lp0
.(lp0
.(lp0
.(lp0
.(lp0
.(lp0
.(lp0
.(lp0
.(lp0
.(lp0
.(lp0
.(lp0
.(lp0
.(lp0
.(lp0
.(lp0
.(lp0
.(lp0
.(lp0
.(lp0
.(lp0
.(lp0
.(lp0
.(lp0
.(lp0
.(lp0
.(lp0
.(lp0
.(lp0
.(lp0
.(lp0
.(lp0
.(lp0
.(lp0
.(lp0
.(lp0
.(lp0
.(lp0
.(lp0
.(lp0
.(lp0
.(lp0
.(lp0
.(lp0
.(lp0
.(lp0
.(lp0
.(lp0
.(lp0
.(lp0
.(lp0
.(lp0
.(lp0
.(lp0
.(lp0
.(lp0
.(lp0
.(lp0
.(lp0
.(lp0
.(lp0
.(lp0
.(lp0
.(lp0
.(lp0
.(lp0
.(lp0
.(lp0
.(lp0
.(lp0
.(lp0
.(lp0
.(lp0
.(lp0
(lp1
S'saveWebContents'
p2
aS'002881'
p3
aa.(lp0
.(lp0
.(lp0
.(lp0
.(lp0
.(lp0
.(lp0
.(lp0
.(lp0
.(lp0
.(lp0
.(lp0
.(lp0
.(lp0
.(lp0
.(lp0
.(lp0
(lp1
S'saveWebContents'
p2
aS'003613'
p3
aa.(lp0
.(lp0
.(lp0
.(lp0
.(lp0
.(lp0
.(lp0
.(lp0
.(lp0
.(lp0
.(lp0
.(lp0
.(lp0
.(lp0
.(lp0
.(lp0
.(lp0
.(lp0
.(lp0
.(lp0
.(lp0
.(lp0
.(lp0
.(lp0
.(lp0
.(lp0
.(lp0
(lp1
S'saveWebContents'
p2
aS'003903'
p3
aa.(lp0
.(lp0
.(lp0
.(lp0
.(lp0
.(lp0
.(lp0
.(lp0
.(lp0
.(lp0
.(lp0
.(lp0
.(lp0
.(lp0
.(lp0
.(lp0
.(lp0
.(lp0
.(lp0
.(lp0
.(lp0
.(lp0
.(lp0
.(lp0
.(lp0
.(lp0
.(lp0
(lp1
S'parserWebContents'
p2
aS'164825'
p3
aa.(lp0
.(lp0
.(lp0
.(lp0
(lp1
S'parserWebContents'
p2
aS'005795'
p3
aa.(lp0
.(lp0
.(lp0
.(lp0
.(lp0
.(lp0
.(lp0
.(lp0
.(lp0
.(lp0
.(lp0
.(lp0
.(lp0
.(lp0
.(lp0
.(lp0
.(lp0
.(lp0
.(lp0
.(lp0
.(lp0
.(lp0
.(lp0
.(lp0
.(lp0
.(lp0
(lp1
S'saveWebContents'
p2
aS'002009'
p3
aa.(lp0
.(lp0
.(lp0
.(lp0
.(lp0
.(lp0
.(lp0
.(lp0
.(lp0
.(lp0
.(lp0
.(lp0
.(lp0
.(lp0
.(lp0
.(lp0
.(lp0
.(lp0
.(lp0
.(lp0
.(lp0
.(lp0
.(lp0
.(lp0
.(lp0
(lp1
S'saveWebContents'
p2
aS'003895'
p3
aa.(lp0
.(lp0
.(lp0
.(lp0
.(lp0
.(lp0
.(lp0
.(lp0
.(lp0
.(lp0
.(lp0
.(lp0
.(lp0
.(lp0
.(lp0
.(lp0
.(lp0
.(lp0
.(lp0
.(lp0
.(lp0
.(lp0
(lp1
S'saveWebContents'
p2
aS'675091'
p3
aa.(lp0
.(lp0
.(lp0
.(lp0
.(lp0
.(lp0
.(lp0
(lp1
S'saveWebContents'
p2
aS'003357'
p3
aa.(lp0
.(lp0
.(lp0
.(lp0
.(lp0
.(lp0
.(lp0
.(lp0
.(lp0
.(lp0
.(lp0
.(lp0
.(lp0
.(lp0
(lp1
S'parserWebContents'
p2
aS'005885'
p3
aa.(lp0
.(lp0
.(lp0
.(lp0
.(lp0
.(lp0
.(lp0
.(lp0
.(lp0
.(lp0
.(lp0
.(lp0
.(lp0
.(lp0
.(lp0
.(lp0
.(lp0
.(lp0
.(lp0
.(lp0
.(lp0
.(lp0
.(lp0
.(lp0
.(lp0
.(lp0
.(lp0
(lp1
S'saveWebContents'
p2
aS'001484'
p3
aa.(lp0
.(lp0
.(lp0
.(lp0
.(lp0
.(lp0
(lp1
S'saveWebContents'
p2
aS'003108'
p3
aa.(lp0
.(lp0
.(lp0
.(lp0
.(lp0
.(lp0
.(lp0
.(lp0
.(lp0
.(lp0
.(lp0
.(lp0
.(lp0
.(lp0
.(lp0
.(lp0
.(lp0
.(lp0
.(lp0
.(lp0
.(lp0
.(lp0
.(lp0
.(lp0
(lp1
S'saveWebContents'
p2
aS'675093'
p3
aa.(lp0
.(lp0
.(lp0
.(lp0
.(lp0
.(lp0
.(lp0
(lp1
S'saveWebContents'
p2
aS'580009'
p3
aa.(lp0
.(lp0
.(lp0
.(lp0
.(lp0
.(lp0
.(lp0
.(lp0
.(lp0
.(lp0
.(lp0
.(lp0
.(lp0
.(lp0
.(lp0
.(lp0
.(lp0
.(lp0
.(lp0
.(lp0
.(lp0
.(lp0
.(lp0
.(lp0
.(lp0
.(lp0
.(lp0
.(lp0
.(lp0
.(lp0
.(lp0
.(lp0
.(lp0
.(lp0
.(lp0
.(lp0
.(lp0
.(lp0
.(lp0
.(lp0
.(lp0
.(lp0
.(lp0
.(lp0
.(lp0
.(lp0
.(lp0
.(lp0
.(lp0
.(lp0
.(lp0
.(lp0
.(lp0
.(lp0
.(lp0
.(lp0
.(lp0
.(lp0
.(lp0
.(lp0
.(lp0
.(lp0
.(lp0
.(lp0
.(lp0
.(lp0
.(lp0
.(lp0
(lp1
S'saveWebContents'
p2
aS'519634'
p3
aa.(lp0
.(lp0
.(lp0
(lp1
S'parserWebContents'
p2
aS'005852'
p3
aa.(lp0
.(lp0
.(lp0
.(lp0
.(lp0
.(lp0
.(lp0
.(lp0
.(lp0
.(lp0
.(lp0
.(lp0
.(lp0
.(lp0
.(lp0
.(lp0
.(lp0
.(lp0
.(lp0
.(lp0
.(lp0
.(lp0
.(lp0
.(lp0
.(lp0
.(lp0
.(lp0
.(lp0
.(lp0
.(lp0
.(lp0
.(lp0
.(lp0
.(lp0
.(lp0
.(lp0
.(lp0
.(lp0
(lp1
S'saveWebContents'
p2
aS'001775'
p3
aa.(lp0
.(lp0
.(lp0
.(lp0
.(lp0
.(lp0
.(lp0
.(lp0
.(lp0
.(lp0
.(lp0
.(lp0
.(lp0
.(lp0
(lp1
S'saveWebContents'
p2
aS'001868'
p3
aa.(lp0
.(lp0
.(lp0
.(lp0
.(lp0
.(lp0
.(lp0
.(lp0
.(lp0
.(lp0
.(lp0
.(lp0
.(lp0
.(lp0
.(lp0
.(lp0
.(lp0
.(lp0
.(lp0
.(lp0
.(lp0
.(lp0
.(lp0
.(lp0
.(lp0
.(lp0
.(lp0
.(lp0
.(lp0
(lp1
S'saveWebContents'
p2
aS'004333'
p3
aa.(lp0
.(lp0
.(lp0
.(lp0
.(lp0
.(lp0
.(lp0
.(lp0
.(lp0
.(lp0
.(lp0
.(lp0
.(lp0
.(lp0
.(lp0
.(lp0
.(lp0
.(lp0
.(lp0
.(lp0
.(lp0
.(lp0
.(lp0
.(lp0
.(lp0
.(lp0
.(lp0
.(lp0
.(lp0
.(lp0
.(lp0
.(lp0
.(lp0
.(lp0
.(lp0
.(lp0
.(lp0
(lp1
S'saveWebContents'
p2
aS'002374'
p3
aa.(lp0
.(lp0
.(lp0
.(lp0
.(lp0
.(lp0
.(lp0
.(lp0
.(lp0
.(lp0
.(lp0
.(lp0
.(lp0
.(lp0
.(lp0
.(lp0
.(lp0
.(lp0
.(lp0
.(lp0
.(lp0
.(lp0
.(lp0
.(lp0
.(lp0
.(lp0
.(lp0
.(lp0
.(lp0
.(lp0
.(lp0
.(lp0
.(lp0
.(lp0
.(lp0
.(lp0
.(lp0
(lp1
S'saveWebContents'
p2
aS'001116'
p3
aa.(lp0
.(lp0
.(lp0
.(lp0
.(lp0
.(lp0
.(lp0
.(lp0
.(lp0
.(lp0
.(lp0
.(lp0
.(lp0
.(lp0
.(lp0
.(lp0
.(lp0
.(lp0
(lp1
S'saveWebContents'
p2
aS'002727'
p3
aa.(lp0
.(lp0
.(lp0
.(lp0
.(lp0
.(lp0
.(lp0
.(lp0
.(lp0
.(lp0
.(lp0
.(lp0
.(lp0
.(lp0
.(lp0
.(lp0
.(lp0
.(lp0
.(lp0
.(lp0
.(lp0
.(lp0
.(lp0
.(lp0
.(lp0
.(lp0
.(lp0
.(lp0
.(lp0
.(lp0
.(lp0
(lp1
S'saveWebContents'
p2
aS'002327'
p3
aa.(lp0
.(lp0
.(lp0
.(lp0
.(lp0
.(lp0
.(lp0
.(lp0
.(lp0
.(lp0
.(lp0
.(lp0
.(lp0
.(lp0
.(lp0
.(lp0
.(lp0
.(lp0
.(lp0
.(lp0
.(lp0
.(lp0
.(lp0
.(lp0
.(lp0
.(lp0
.(lp0
.(lp0
.(lp0
.(lp0
.(lp0
.(lp0
.(lp0
.(lp0
.(lp0
(lp1
S'saveWebContents'
p2
aS'001710'
p3
aa.(lp0
.(lp0
.(lp0
.(lp0
.(lp0
.(lp0
.(lp0
.(lp0
.(lp0
.(lp0
.(lp0
.(lp0
(lp1
S'saveWebContents'
p2
aS'003411'
p3
aa.(lp0
.(lp0
.(lp0
.(lp0
.(lp0
.(lp0
(lp1
S'saveWebContents'
p2
aS'003118'
p3
aa.(lp0
.(lp0
.(lp0
.(lp0
.(lp0
.(lp0
.(lp0
.(lp0
.(lp0
.(lp0
.(lp0
.(lp0
.(lp0
.(lp0
.(lp0
.(lp0
.(lp0
.(lp0
.(lp0
.(lp0
.(lp0
.(lp0
.(lp0
.(lp0
.(lp0
.(lp0
.(lp0
.(lp0
.(lp0
.(lp0
.(lp0
.(lp0
.(lp0
.(lp0
.(lp0
.(lp0
.(lp0
.(lp0
.(lp0
.(lp0
.(lp0
.(lp0
.(lp0
.(lp0
.(lp0
.(lp0
.(lp0
.(lp0
.(lp0
(lp1
S'saveWebContents'
p2
aS'020036'
p3
aa.(lp0
.(lp0
.(lp0
.(lp0
.(lp0
.(lp0
(lp1
S'saveWebContents'
p2
aS'003578'
p3
aa.(lp0
.(lp0
.(lp0
.(lp0
.(lp0
.(lp0
.(lp0
.(lp0
.(lp0
.(lp0
.(lp0
.(lp0
.(lp0
.(lp0
.(lp0
.(lp0
.(lp0
.(lp0
.(lp0
.(lp0
.(lp0
.(lp0
(lp1
S'saveWebContents'
p2
aS'675083'
p3
aa.(lp0
.(lp0
.(lp0
.(lp0
.(lp0
.(lp0
.(lp0
.(lp0
.(lp0
.(lp0
.(lp0
(lp1
S'parserWebContents'
p2
aS'005919'
p3
aa.(lp0
.(lp0
.(lp0
.(lp0
.(lp0
.(lp0
.(lp0
.(lp0
.(lp0
.(lp0
.(lp0
.(lp0
.(lp0
.(lp0
.(lp0
.(lp0
.(lp0
.(lp0
.(lp0
(lp1
S'saveWebContents'
p2
aS'531008'
p3
aa.(lp0
.(lp0
.(lp0
.(lp0
.(lp0
.(lp0
.(lp0
.(lp0
.(lp0
.(lp0
.(lp0
.(lp0
.(lp0
.(lp0
.(lp0
.(lp0
.(lp0
.(lp0
.(lp0
.(lp0
.(lp0
.(lp0
.(lp0
.(lp0
(lp1
S'saveWebContents'
p2
aS'003886'
p3
aa.(lp0
.(lp0
.(lp0
.(lp0
.(lp0
.(lp0
.(lp0
.(lp0
.(lp0
.(lp0
.(lp0
.(lp0
.(lp0
.(lp0
.(lp0
.(lp0
.(lp0
.(lp0
.(lp0
.(lp0
.(lp0
.(lp0
.(lp0
.(lp0
.(lp0
.(lp0
.(lp0
.(lp0
(lp1
S'saveWebContents'
p2
aS'002903'
p3
aa.(lp0
(lp1
S'saveWebContents'
p2
aS'000174'
p3
aa.(lp0
.(lp0
.(lp0
.(lp0
.(lp0
.(lp0
.(lp0
.(lp0
.(lp0
.(lp0
.(lp0
.(lp0
.(lp0
.(lp0
.(lp0
.(lp0
.(lp0
.(lp0
.(lp0
.(lp0
.(lp0
.(lp0
.(lp0
.(lp0
.(lp0
.(lp0
.(lp0
.(lp0
.(lp0
.(lp0
.(lp0
.(lp0
.(lp0
.(lp0
.(lp0
(lp1
S'saveWebContents'
p2
aS'001654'
p3
aa.(lp0
.(lp0
.(lp0
.(lp0
.(lp0
.(lp0
.(lp0
.(lp0
.(lp0
.(lp0
.(lp0
.(lp0
.(lp0
.(lp0
.(lp0
.(lp0
.(lp0
.(lp0
.(lp0
(lp1
S'saveWebContents'
p2
aS'002627'
p3
aa.(lp0
.(lp0
.(lp0
.(lp0
.(lp0
.(lp0
.(lp0
.(lp0
.(lp0
.(lp0
.(lp0
.(lp0
.(lp0
.(lp0
.(lp0
.(lp0
.(lp0
.(lp0
.(lp0
.(lp0
.(lp0
.(lp0
.(lp0
(lp1
S'saveWebContents'
p2
aS'001413'
p3
aa.(lp0
.(lp0
.(lp0
.(lp0
.(lp0
.(lp0
.(lp0
.(lp0
.(lp0
.(lp0
.(lp0
.(lp0
.(lp0
.(lp0
.(lp0
.(lp0
.(lp0
.(lp0
.(lp0
.(lp0
.(lp0
.(lp0
.(lp0
(lp1
S'saveWebContents'
p2
aS'003235'
p3
aa.(lp0
.(lp0
.(lp0
.(lp0
.(lp0
.(lp0
.(lp0
.(lp0
.(lp0
(lp1
S'saveWebContents'
p2
aS'002637'
p3
aa.(lp0
.(lp0
.(lp0
.(lp0
.(lp0
.(lp0
(lp1
S'saveWebContents'
p2
aS'531017'
p3
aa.(lp0
.(lp0
.(lp0
.(lp0
.(lp0
.(lp0
.(lp0
.(lp0
.(lp0
.(lp0
.(lp0
.(lp0
.(lp0
.(lp0
.(lp0
.(lp0
.(lp0
.(lp0
.(lp0
.(lp0
(lp1
S'saveWebContents'
p2
aS'003233'
p3
aa.(lp0
.(lp0
.(lp0
.(lp0
.(lp0
.(lp0
.(lp0
.(lp0
.(lp0
.(lp0
.(lp0
.(lp0
.(lp0
.(lp0
.(lp0
.(lp0
.(lp0
.(lp0
.(lp0
.(lp0
.(lp0
.(lp0
.(lp0
.(lp0
.(lp0
.(lp0
.(lp0
.(lp0
.(lp0
.(lp0
.(lp0
.(lp0
.(lp0
.(lp0
.(lp0
.(lp0
.(lp0
.(lp0
.(lp0
.(lp0
.(lp0
.(lp0
.(lp0
.(lp0
(lp1
S'saveWebContents'
p2
aS'160513'
p3
aa.(lp0
.(lp0
.(lp0
.(lp0
.(lp0
.(lp0
.(lp0
.(lp0
.(lp0
.(lp0
.(lp0
.(lp0
.(lp0
.(lp0
.(lp0
.(lp0
.(lp0
.(lp0
.(lp0
.(lp0
.(lp0
.(lp0
.(lp0
.(lp0
.(lp0
.(lp0
.(lp0
.(lp0
.(lp0
.(lp0
.(lp0
.(lp0
.(lp0
.(lp0
.(lp0
.(lp0
.(lp0
.(lp0
.(lp0
.(lp0
.(lp0
(lp1
S'saveWebContents'
p2
aS'519120'
p3
aa.(lp0
.(lp0
.(lp0
.(lp0
.(lp0
.(lp0
.(lp0
.(lp0
.(lp0
.(lp0
.(lp0
.(lp0
.(lp0
.(lp0
.(lp0
.(lp0
.(lp0
.(lp0
.(lp0
.(lp0
.(lp0
.(lp0
.(lp0
.(lp0
.(lp0
.(lp0
.(lp0
.(lp0
.(lp0
.(lp0
.(lp0
.(lp0
.(lp0
.(lp0
.(lp0
.(lp0
.(lp0
.(lp0
.(lp0
.(lp0
.(lp0
.(lp0
.(lp0
.(lp0
.(lp0
.(lp0
.(lp0
.(lp0
.(lp0
.(lp0
.(lp0
.(lp0
.(lp0
.(lp0
.(lp0
.(lp0
.(lp0
.(lp0
.(lp0
.(lp0
.(lp0
.(lp0
.(lp0
.(lp0
.(lp0
.(lp0
.(lp0
.(lp0
.(lp0
.(lp0
.(lp0
.(lp0
.(lp0
.(lp0
.(lp0
.(lp0
.(lp0
.(lp0
.(lp0
.(lp0
.(lp0
.(lp0
.(lp0
.(lp0
.(lp0
.(lp0
.(lp0
.(lp0
.(lp0
.(lp0
.(lp0
.(lp0
.(lp0
.(lp0
.(lp0
.(lp0
.(lp0
.(lp0
.(lp0
.(lp0
.(lp0
.(lp0
.(lp0
.(lp0
.(lp0
.(lp0
.(lp0
.(lp0
.(lp0
.(lp0
.(lp0
.(lp0
.(lp0
.(lp0
.(lp0
.(lp0
.(lp0
.(lp0
.(lp0
.(lp0
.(lp0
.(lp0
.(lp0
.(lp0
.(lp0
.(lp0
.(lp0
.(lp0
.(lp0
.(lp0
.(lp0
.(lp0
.(lp0
.(lp0
.(lp0
.(lp0
.(lp0
.(lp0
.(lp0
.(lp0
.(lp0
(lp1
S'saveWebContents'
p2
aS'001607'
p3
aa.(lp0
.(lp0
.(lp0
.(lp0
.(lp0
.(lp0
.(lp0
.(lp0
.(lp0
.(lp0
.(lp0
.(lp0
.(lp0
.(lp0
.(lp0
.(lp0
.(lp0
.(lp0
.(lp0
.(lp0
.(lp0
.(lp0
.(lp0
.(lp0
.(lp0
.(lp0
.(lp0
.(lp0
.(lp0
.(lp0
.(lp0
.(lp0
.(lp0
.(lp0
.(lp0
.(lp0
.(lp0
.(lp0
.(lp0
.(lp0
.(lp0
.(lp0
.(lp0
.(lp0
.(lp0
.(lp0
.(lp0
.(lp0
.(lp0
.(lp0
.(lp0
.(lp0
.(lp0
.(lp0
.(lp0
.(lp0
.(lp0
.(lp0
.(lp0
.(lp0
.(lp0
.(lp0
.(lp0
.(lp0
.(lp0
.(lp0
.(lp0
.(lp0
.(lp0
(lp1
S'saveWebContents'
p2
aS'002522'
p3
aa.(lp0
.(lp0
.(lp0
.(lp0
.(lp0
.(lp0
.(lp0
.(lp0
.(lp0
.(lp0
.(lp0
.(lp0
.(lp0
.(lp0
.(lp0
.(lp0
.(lp0
.(lp0
.(lp0
.(lp0
.(lp0
.(lp0
(lp1
S'saveWebContents'
p2
aS'080008'
p3
aa.(lp0
.(lp0
.(lp0
.(lp0
.(lp0
.(lp0
.(lp0
.(lp0
.(lp0
(lp1
S'saveWebContents'
p2
aS'001438'
p3
aa.(lp0
.(lp0
.(lp0
.(lp0
.(lp0
.(lp0
.(lp0
.(lp0
(lp1
S'saveWebContents'
p2
aS'004676'
p3
aa.(lp0
.(lp0
.(lp0
.(lp0
.(lp0
.(lp0
.(lp0
.(lp0
.(lp0
.(lp0
.(lp0
.(lp0
.(lp0
.(lp0
.(lp0
(lp1
S'saveWebContents'
p2
aS'004193'
p3
aa.(lp0
.(lp0
.(lp0
.(lp0
.(lp0
.(lp0
.(lp0
.(lp0
.(lp0
.(lp0
.(lp0
.(lp0
.(lp0
.(lp0
.(lp0
.(lp0
.(lp0
.(lp0
.(lp0
.(lp0
.(lp0
.(lp0
.(lp0
.(lp0
.(lp0
.(lp0
(lp1
S'saveWebContents'
p2
aS'004651'
p3
aa.(lp0
.(lp0
.(lp0
.(lp0
.(lp0
.(lp0
.(lp0
.(lp0
.(lp0
.(lp0
.(lp0
.(lp0
.(lp0
.(lp0
.(lp0
.(lp0
.(lp0
.(lp0
.(lp0
.(lp0
.(lp0
.(lp0
.(lp0
.(lp0
.(lp0
.(lp0
.(lp0
.(lp0
.(lp0
.(lp0
.(lp0
.(lp0
.(lp0
.(lp0
.(lp0
.(lp0
.(lp0
.(lp0
.(lp0
.(lp0
.(lp0
.(lp0
.(lp0
.(lp0
.(lp0
(lp1
S'saveWebContents'
p2
aS'519157'
p3
aa.(lp0
.(lp0
.(lp0
.(lp0
.(lp0
.(lp0
.(lp0
.(lp0
.(lp0
.(lp0
.(lp0
.(lp0
.(lp0
.(lp0
.(lp0
.(lp0
.(lp0
.(lp0
.(lp0
.(lp0
.(lp0
.(lp0
.(lp0
.(lp0
.(lp0
.(lp0
.(lp0
.(lp0
.(lp0
.(lp0
.(lp0
.(lp0
.(lp0
.(lp0
.(lp0
(lp1
S'saveWebContents'
p2
aS'003446'
p3
aa.(lp0
.(lp0
.(lp0
.(lp0
.(lp0
.(lp0
.(lp0
.(lp0
.(lp0
.(lp0
.(lp0
.(lp0
.(lp0
.(lp0
.(lp0
.(lp0
.(lp0
.(lp0
.(lp0
(lp1
S'saveWebContents'
p2
aS'001602'
p3
aa.(lp0
.(lp0
.(lp0
.(lp0
.(lp0
.(lp0
.(lp0
.(lp0
.(lp0
.(lp0
.(lp0
.(lp0
.(lp0
.(lp0
.(lp0
.(lp0
.(lp0
.(lp0
.(lp0
.(lp0
.(lp0
.(lp0
.(lp0
.(lp0
.(lp0
.(lp0
.(lp0
.(lp0
.(lp0
.(lp0
.(lp0
.(lp0
.(lp0
.(lp0
.(lp0
.(lp0
.(lp0
.(lp0
.(lp0
.(lp0
.(lp0
.(lp0
.(lp0
.(lp0
.(lp0
.(lp0
.(lp0
.(lp0
.(lp0
.(lp0
.(lp0
.(lp0
.(lp0
.(lp0
.(lp0
.(lp0
.(lp0
.(lp0
.(lp0
.(lp0
.(lp0
.(lp0
.(lp0
.(lp0
.(lp0
.(lp0
.(lp0
.(lp0
.(lp0
.(lp0
.(lp0
.(lp0
.(lp0
.(lp0
.(lp0
.(lp0
.(lp0
.(lp0
.(lp0
.(lp0
.(lp0
.(lp0
.(lp0
.(lp0
.(lp0
.(lp0
.(lp0
.(lp0
.(lp0
.(lp0
.(lp0
(lp1
S'saveWebContents'
p2
aS'002779'
p3
aa.(lp0
.(lp0
.(lp0
.(lp0
.(lp0
.(lp0
.(lp0
.(lp0
.(lp0
(lp1
S'saveWebContents'
p2
aS'519191'
p3
aa.(lp0
.(lp0
.(lp0
.(lp0
.(lp0
.(lp0
.(lp0
.(lp0
.(lp0
.(lp0
.(lp0
.(lp0
.(lp0
.(lp0
.(lp0
(lp1
S'parserWebContents'
p2
aS'005763'
p3
aa.(lp0
.(lp0
.(lp0
(lp1
S'saveWebContents'
p2
aS'002207'
p3
aa.(lp0
.(lp0
.(lp0
.(lp0
.(lp0
.(lp0
.(lp0
.(lp0
.(lp0
.(lp0
.(lp0
.(lp0
.(lp0
.(lp0
.(lp0
.(lp0
.(lp0
(lp1
S'saveWebContents'
p2
aS'004636'
p3
aa.(lp0
.(lp0
.(lp0
.(lp0
.(lp0
.(lp0
.(lp0
.(lp0
.(lp0
.(lp0
.(lp0
.(lp0
.(lp0
.(lp0
.(lp0
.(lp0
.(lp0
.(lp0
.(lp0
(lp1
S'saveWebContents'
p2
aS'519960'
p3
aa.(lp0
(lp1
S'saveWebContents'
p2
aS'519961'
p3
aa.(lp0
.(lp0
.(lp0
.(lp0
.(lp0
.(lp0
.(lp0
.(lp0
.(lp0
.(lp0
.(lp0
.(lp0
.(lp0
.(lp0
.(lp0
.(lp0
.(lp0
.(lp0
.(lp0
.(lp0
.(lp0
.(lp0
.(lp0
.(lp0
.(lp0
.(lp0
.(lp0
.(lp0
.(lp0
.(lp0
.(lp0
.(lp0
.(lp0
(lp1
S'saveWebContents'
p2
aS'002555'
p3
aa.(lp0
.(lp0
.(lp0
.(lp0
.(lp0
.(lp0
.(lp0
.(lp0
.(lp0
.(lp0
.(lp0
.(lp0
.(lp0
.(lp0
.(lp0
.(lp0
.(lp0
.(lp0
.(lp0
.(lp0
.(lp0
.(lp0
.(lp0
.(lp0
.(lp0
.(lp0
.(lp0
.(lp0
.(lp0
.(lp0
.(lp0
.(lp0
.(lp0
.(lp0
.(lp0
.(lp0
.(lp0
.(lp0
.(lp0
.(lp0
.(lp0
.(lp0
.(lp0
.(lp0
.(lp0
.(lp0
.(lp0
.(lp0
.(lp0
.(lp0
.(lp0
.(lp0
.(lp0
.(lp0
.(lp0
.(lp0
.(lp0
.(lp0
.(lp0
.(lp0
.(lp0
.(lp0
.(lp0
.(lp0
.(lp0
.(lp0
.(lp0
.(lp0
.(lp0
.(lp0
.(lp0
.(lp0
.(lp0
.(lp0
(lp1
S'saveWebContents'
p2
aS'004879'
p3
aa.(lp0
.(lp0
.(lp0
.(lp0
.(lp0
.(lp0
.(lp0
.(lp0
.(lp0
.(lp0
.(lp0
.(lp0
.(lp0
.(lp0
.(lp0
.(lp0
.(lp0
.(lp0
.(lp0
.(lp0
.(lp0
(lp1
S'saveWebContents'
p2
aS'001584'
p3
aa.(lp0
.(lp0
.(lp0
.(lp0
.(lp0
.(lp0
.(lp0
.(lp0
.(lp0
.(lp0
.(lp0
.(lp0
(lp1
S'saveWebContents'
p2
aS'001585'
p3
aa.(lp0
.(lp0
.(lp0
.(lp0
.(lp0
.(lp0
.(lp0
.(lp0
.(lp0
.(lp0
.(lp0
.(lp0
.(lp0
.(lp0
.(lp0
.(lp0
.(lp0
.(lp0
.(lp0
.(lp0
.(lp0
.(lp0
.(lp0
.(lp0
.(lp0
.(lp0
.(lp0
.(lp0
.(lp0
.(lp0
.(lp0
.(lp0
.(lp0
.(lp0
.(lp0
.(lp0
.(lp0
.(lp0
.(lp0
.(lp0
.(lp0
.(lp0
.(lp0
.(lp0
.(lp0
.(lp0
.(lp0
.(lp0
.(lp0
.(lp0
.(lp0
.(lp0
.(lp0
.(lp0
.(lp0
.(lp0
.(lp0
.(lp0
.(lp0
.(lp0
.(lp0
.(lp0
.(lp0
.(lp0
.(lp0
.(lp0
.(lp0
.(lp0
.(lp0
.(lp0
.(lp0
.(lp0
.(lp0
.(lp0
.(lp0
.(lp0
.(lp0
.(lp0
.(lp0
.(lp0
.(lp0
.(lp0
.(lp0
.(lp0
.(lp0
.(lp0
.(lp0
.(lp0
.(lp0
.(lp0
.(lp0
.(lp0
.(lp0
.(lp0
(lp1
S'saveWebContents'
p2
aS'002716'
p3
aa.(lp0
.(lp0
.(lp0
.(lp0
.(lp0
.(lp0
.(lp0
.(lp0
.(lp0
.(lp0
.(lp0
.(lp0
.(lp0
.(lp0
.(lp0
.(lp0
(lp1
S'saveWebContents'
p2
aS'003526'
p3
aa.(lp0
.(lp0
.(lp0
.(lp0
.(lp0
.(lp0
.(lp0
.(lp0
.(lp0
.(lp0
.(lp0
.(lp0
.(lp0
.(lp0
.(lp0
.(lp0
.(lp0
.(lp0
.(lp0
.(lp0
.(lp0
.(lp0
.(lp0
.(lp0
.(lp0
.(lp0
.(lp0
.(lp0
.(lp0
.(lp0
.(lp0
.(lp0
.(lp0
.(lp0
.(lp0
.(lp0
.(lp0
.(lp0
.(lp0
.(lp0
.(lp0
.(lp0
.(lp0
.(lp0
.(lp0
.(lp0
.(lp0
.(lp0
.(lp0
.(lp0
.(lp0
.(lp0
.(lp0
.(lp0
.(lp0
.(lp0
.(lp0
.(lp0
.(lp0
.(lp0
.(lp0
.(lp0
.(lp0
.(lp0
.(lp0
.(lp0
.(lp0
.(lp0
.(lp0
.(lp0
.(lp0
.(lp0
.(lp0
.(lp0
.(lp0
.(lp0
.(lp0
.(lp0
.(lp0
.(lp0
.(lp0
.(lp0
.(lp0
.(lp0
.(lp0
.(lp0
.(lp0
.(lp0
.(lp0
.(lp0
.(lp0
.(lp0
.(lp0
.(lp0
.(lp0
.(lp0
.(lp0
.(lp0
.(lp0
.(lp0
.(lp0
.(lp0
.(lp0
.(lp0
.(lp0
.(lp0
.(lp0
.(lp0
.(lp0
.(lp0
.(lp0
.(lp0
.(lp0
.(lp0
.(lp0
.(lp0
.(lp0
.(lp0
.(lp0
.(lp0
.(lp0
.(lp0
.(lp0
.(lp0
.(lp0
.(lp0
.(lp0
.(lp0
.(lp0
.(lp0
.(lp0
.(lp0
.(lp0
.(lp0
.(lp0
.(lp0
.(lp0
.(lp0
.(lp0
.(lp0
.(lp0
.(lp0
.(lp0
.(lp0
.(lp0
.(lp0
.(lp0
.(lp0
.(lp0
.(lp0
.(lp0
.(lp0
.(lp0
.(lp0
.(lp0
.(lp0
.(lp0
.(lp0
.(lp0
.(lp0
.(lp0
.(lp0
.(lp0
.(lp0
.(lp0
.(lp0
.(lp0
.(lp0
.(lp0
.(lp0
.(lp0
.(lp0
.(lp0
.(lp0
.(lp0
.(lp0
.(lp0
.(lp0
.(lp0
.(lp0
.(lp0
.(lp0
.(lp0
.(lp0
.(lp0
.(lp0
.(lp0
.(lp0
.(lp0
.(lp0
.(lp0
.(lp0
.(lp0
.(lp0
.(lp0
.(lp0
.(lp0
.(lp0
.(lp0
.(lp0
.(lp0
.(lp0
.(lp0
.(lp0
.(lp0
.(lp0
.(lp0
.(lp0
.(lp0
.(lp0
.(lp0
.(lp0
.(lp0
.(lp0
.(lp0
.(lp0
.(lp0
.(lp0
.(lp0
.(lp0
.(lp0
.(lp0
.(lp0
.(lp0
.(lp0
.(lp0
.(lp0
.(lp0
.(lp0
.(lp0
.(lp0
.(lp0
.(lp0
.(lp0
.(lp0
.(lp0
.(lp0
.(lp0
.(lp0
.(lp0
.(lp0
.(lp0
.(lp0
.(lp0
.(lp0
.(lp0
.(lp0
.(lp0
.(lp0
.(lp0
.(lp0
.(lp0
.(lp0
.(lp0
.(lp0
.(lp0
.(lp0
.(lp0
.(lp0
.(lp0
.(lp0
.(lp0
.(lp0
.(lp0
.(lp0
.(lp0
.(lp0
.(lp0
.(lp0
.(lp0
.(lp0
.(lp0
.(lp0
.(lp0
.(lp0
.(lp0
.(lp0
.(lp0
.(lp0
.(lp0
.(lp0
.(lp0
.(lp0
.(lp0
.(lp0
.(lp0
.(lp0
.(lp0
.(lp0
.(lp0
.(lp0
.(lp0
.(lp0
.(lp0
.(lp0
.(lp0
.(lp0
.(lp0
.(lp0
.(lp0
.(lp0
.(lp0
.(lp0
.(lp0
.(lp0
.(lp0
.(lp0
.(lp0
.(lp0
.(lp0
.(lp0
.(lp0
.(lp0
.(lp0
.(lp0
.(lp0
.(lp0
.(lp0
.(lp0
.(lp0
.(lp0
.(lp0
.(lp0
.(lp0
.(lp0
.(lp0
.(lp0
.(lp0
.(lp0
.(lp0
.(lp0
.(lp0
.(lp0
.(lp0
.(lp0
.(lp0
.(lp0
.(lp0
.(lp0
.(lp0
.(lp0
.(lp0
.(lp0
.(lp0
.(lp0
.(lp0
.(lp0
.(lp0
.(lp0
.(lp0
.(lp0
.(lp0
.(lp0
.(lp0
.(lp0
.(lp0
.(lp0
.(lp0
.(lp0
.(lp0
.(lp0
.(lp0
.(lp0
.(lp0
.(lp0
.(lp0
.(lp0
.(lp0
.(lp0
.(lp0
.(lp0
.(lp0
.(lp0
.(lp0
.(lp0
.(lp0
.(lp0
.(lp0
.(lp0
.(lp0
.(lp0
.(lp0
.(lp0
.(lp0
.(lp0
.(lp0
.(lp0
.(lp0
.(lp0
.(lp0
.(lp0
.(lp0
.(lp0
.(lp0
.(lp0
.(lp0
.(lp0
.(lp0
.(lp0
.(lp0
.(lp0
.(lp0
.(lp0
.(lp0
.(lp0
.(lp0
.(lp0
.(lp0
.(lp0
.(lp0
.(lp0
.(lp0
.(lp0
.(lp0
.(lp0
.(lp0
.(lp0
.(lp0
.(lp0
.(lp0
.(lp0
.(lp0
.(lp0
.(lp0
.(lp0
.(lp0
(lp1
S'saveWebContents'
p2
aS'001934'
p3
aa.(lp0
.(lp0
.(lp0
.(lp0
.(lp0
.(lp0
.(lp0
.(lp0
.(lp0
.(lp0
.(lp0
.(lp0
.(lp0
.(lp0
.(lp0
.(lp0
.(lp0
.(lp0
.(lp0
.(lp0
.(lp0
.(lp0
.(lp0
.(lp0
.(lp0
.(lp0
.(lp0
.(lp0
.(lp0
.(lp0
.(lp0
.(lp0
.(lp0
.(lp0
.(lp0
.(lp0
.(lp0
.(lp0
.(lp0
.(lp0
.(lp0
.(lp0
.(lp0
.(lp0
.(lp0
.(lp0
.(lp0
.(lp0
.(lp0
.(lp0
.(lp0
.(lp0
.(lp0
.(lp0
.(lp0
.(lp0
.(lp0
.(lp0
.(lp0
.(lp0
.(lp0
.(lp0
.(lp0
.(lp0
.(lp0
.(lp0
.(lp0
.(lp0
.(lp0
.(lp0
.(lp0
.(lp0
.(lp0
(lp1
S'saveWebContents'
p2
aS'003322'
p3
aa.(lp0
.(lp0
(lp1
S'saveWebContents'
p2
aS'003323'
p3
aa.(lp0
.(lp0
.(lp0
.(lp0
.(lp0
.(lp0
.(lp0
.(lp0
.(lp0
.(lp0
.(lp0
.(lp0
.(lp0
.(lp0
.(lp0
.(lp0
.(lp0
.(lp0
.(lp0
.(lp0
.(lp0
.(lp0
.(lp0
.(lp0
.(lp0
.(lp0
.(lp0
.(lp0
.(lp0
.(lp0
.(lp0
.(lp0
(lp1
S'parserWebContents'
p2
aS'002344'
p3
aa.(lp0
.(lp0
.(lp0
.(lp0
.(lp0
(lp1
S'parserWebContents'
p2
aS'001774'
p3
aa.(lp0
.(lp0
.(lp0
(lp1
S'parserWebContents'
p2
aS'003699'
p3
aa.(lp0
(lp1
S'parserWebContents'
p2
aS'003443'
p3
aa.(lp0
.(lp0
(lp1
S'parserWebContents'
p2
aS'003570'
p3
aa.(lp0
.(lp0
(lp1
S'parserWebContents'
p2
aS'003577'
p3
aa.(lp0
.(lp0
.(lp0
(lp1
S'parserWebContents'
p2
aS'003572'
p3
aa.(lp0
(lp1
S'parserWebContents'
p2
aS'004095'
p3
aa.(lp0
.(lp0
.(lp0
(lp1
S'parserWebContents'
p2
aS'003449'
p3
aa.(lp0
(lp1
S'parserWebContents'
p2
aS'003441'
p3
aa.(lp0
(lp1
S'parserWebContents'
p2
aS'003451'
p3
aa.(lp0
(lp1
S'parserWebContents'
p2
aS'003868'
p3
aa.(lp0
.(lp0
(lp1
S'parserWebContents'
p2
aS'004051'
p3
aa.(lp0
.(lp0
(lp1
S'parserWebContents'
p2
aS'004049'
p3
aa.(lp0
.(lp0
.(lp0
.(lp0
.(lp0
.(lp0
.(lp0
.(lp0
.(lp0
.(lp0
.(lp0
.(lp0
.(lp0
.(lp0
.(lp0
.(lp0
.(lp0
.(lp0
.(lp0
.(lp0
.(lp0
.(lp0
(lp1
S'saveWebContents'
p2
aS'003816'
p3
aa.(lp0
.(lp0
(lp1
S'saveWebContents'
p2
aS'003816'
p3
aa.(lp0
.(lp0
.(lp0
.(lp0
.(lp0
.(lp0
.(lp0
.(lp0
.(lp0
.(lp0
.(lp0
.(lp0
(lp1
S'saveWebContents'
p2
aS'519760'
p3
aa.(lp0
.(lp0
.(lp0
.(lp0
.(lp0
.(lp0
.(lp0
.(lp0
.(lp0
.(lp0
.(lp0
.(lp0
.(lp0
.(lp0
.(lp0
.(lp0
.(lp0
.(lp0
.(lp0
.(lp0
.(lp0
.(lp0
.(lp0
.(lp0
.(lp0
.(lp0
.(lp0
.(lp0
(lp1
S'saveWebContents'
p2
aS'002059'
p3
aa.(lp0
.(lp0
.(lp0
.(lp0
.(lp0
.(lp0
.(lp0
.(lp0
.(lp0
.(lp0
.(lp0
.(lp0
.(lp0
.(lp0
.(lp0
.(lp0
.(lp0
.(lp0
.(lp0
.(lp0
.(lp0
.(lp0
.(lp0
(lp1
S'saveWebContents'
p2
aS'002061'
p3
aa.(lp0
.(lp0
.(lp0
.(lp0
.(lp0
.(lp0
.(lp0
.(lp0
.(lp0
.(lp0
.(lp0
(lp1
S'saveWebContents'
p2
aS'005206'
p3
aa.(lp0
.(lp0
.(lp0
.(lp0
.(lp0
.(lp0
.(lp0
.(lp0
.(lp0
.(lp0
.(lp0
.(lp0
.(lp0
.(lp0
.(lp0
.(lp0
.(lp0
.(lp0
.(lp0
.(lp0
.(lp0
.(lp0
.(lp0
.(lp0
.(lp0
.(lp0
.(lp0
.(lp0
.(lp0
.(lp0
.(lp0
.(lp0
.(lp0
.(lp0
.(lp0
.(lp0
.(lp0
.(lp0
.(lp0
.(lp0
.(lp0
.(lp0
.(lp0
.(lp0
(lp1
S'saveWebContents'
p2
aS'002163'
p3
aa.(lp0
.(lp0
.(lp0
.(lp0
.(lp0
.(lp0
.(lp0
.(lp0
.(lp0
.(lp0
.(lp0
(lp1
S'saveWebContents'
p2
aS'519120'
p3
aa.(lp0
.(lp0
.(lp0
.(lp0
.(lp0
.(lp0
(lp1
S'saveWebContents'
p2
aS'080008'
p3
aa.(lp0
.(lp0
.(lp0
.(lp0
.(lp0
.(lp0
.(lp0
.(lp0
.(lp0
.(lp0
.(lp0
.(lp0
.(lp0
.(lp0
.(lp0
.(lp0
.(lp0
.(lp0
.(lp0
.(lp0
.(lp0
.(lp0
.(lp0
.(lp0
.(lp0
(lp1
S'saveWebContents'
p2
aS'519746'
p3
aa.(lp0
.(lp0
.(lp0
.(lp0
.(lp0
.(lp0
.(lp0
.(lp0
.(lp0
.(lp0
.(lp0
.(lp0
.(lp0
.(lp0
.(lp0
.(lp0
.(lp0
.(lp0
.(lp0
.(lp0
.(lp0
.(lp0
.(lp0
.(lp0
.(lp0
.(lp0
.(lp0
.(lp0
.(lp0
.(lp0
.(lp0
.(lp0
.(lp0
.(lp0
.(lp0
.(lp0
.(lp0
.(lp0
.(lp0
.(lp0
.(lp0
.(lp0
.(lp0
.(lp0
.(lp0
.(lp0
.(lp0
(lp1
S'saveWebContents'
p2
aS'001315'
p3
aa.(lp0
.(lp0
.(lp0
(lp1
S'saveWebContents'
p2
aS'002881'
p3
aa.(lp0
.(lp0
.(lp0
.(lp0
.(lp0
.(lp0
.(lp0
.(lp0
.(lp0
.(lp0
.(lp0
.(lp0
.(lp0
.(lp0
.(lp0
.(lp0
.(lp0
.(lp0
.(lp0
.(lp0
.(lp0
.(lp0
.(lp0
.(lp0
.(lp0
.(lp0
.(lp0
.(lp0
.(lp0
.(lp0
.(lp0
.(lp0
.(lp0
.(lp0
.(lp0
.(lp0
.(lp0
.(lp0
.(lp0
.(lp0
.(lp0
.(lp0
.(lp0
.(lp0
.(lp0
.(lp0
.(lp0
.(lp0
.(lp0
.(lp0
.(lp0
.(lp0
.(lp0
.(lp0
.(lp0
(lp1
S'saveWebContents'
p2
aS'000063'
p3
aa.(lp0
.(lp0
.(lp0
.(lp0
.(lp0
.(lp0
.(lp0
.(lp0
.(lp0
.(lp0
.(lp0
.(lp0
.(lp0
.(lp0
.(lp0
.(lp0
.(lp0
.(lp0
.(lp0
.(lp0
.(lp0
.(lp0
.(lp0
.(lp0
.(lp0
.(lp0
.(lp0
.(lp0
.(lp0
.(lp0
.(lp0
.(lp0
.(lp0
.(lp0
.(lp0
.(lp0
.(lp0
(lp1
S'saveWebContents'
p2
aS'000215'
p3
aa.(lp0
.(lp0
.(lp0
.(lp0
.(lp0
.(lp0
.(lp0
.(lp0
.(lp0
(lp1
S'saveWebContents'
p2
aS'531008'
p3
aa.(lp0
.(lp0
.(lp0
.(lp0
.(lp0
.(lp0
.(lp0
.(lp0
.(lp0
.(lp0
.(lp0
.(lp0
.(lp0
.(lp0
(lp1
S'saveWebContents'
p2
aS'000511'
p3
aa.(lp0
.(lp0
.(lp0
.(lp0
.(lp0
.(lp0
.(lp0
.(lp0
.(lp0
.(lp0
.(lp0
.(lp0
.(lp0
.(lp0
.(lp0
.(lp0
.(lp0
.(lp0
.(lp0
.(lp0
.(lp0
.(lp0
.(lp0
.(lp0
.(lp0
.(lp0
.(lp0
.(lp0
(lp1
S'saveWebContents'
p2
aS'004407'
p3
aa.(lp0
.(lp0
.(lp0
.(lp0
.(lp0
.(lp0
.(lp0
.(lp0
.(lp0
.(lp0
.(lp0
.(lp0
.(lp0
.(lp0
.(lp0
.(lp0
.(lp0
.(lp0
.(lp0
.(lp0
.(lp0
.(lp0
.(lp0
.(lp0
.(lp0
.(lp0
.(lp0
.(lp0
.(lp0
.(lp0
.(lp0
.(lp0
.(lp0
.(lp0
.(lp0
.(lp0
.(lp0
.(lp0
(lp1
S'parserWebContents'
p2
aS'005878'
p3
aa.(lp0
.(lp0
.(lp0
.(lp0
.(lp0
.(lp0
.(lp0
.(lp0
.(lp0
.(lp0
.(lp0
.(lp0
.(lp0
.(lp0
(lp1
S'saveWebContents'
p2
aS'002172'
p3
aa.(lp0
.(lp0
.(lp0
.(lp0
.(lp0
.(lp0
.(lp0
.(lp0
.(lp0
.(lp0
.(lp0
.(lp0
.(lp0
.(lp0
.(lp0
.(lp0
.(lp0
.(lp0
.(lp0
.(lp0
.(lp0
.(lp0
.(lp0
.(lp0
.(lp0
.(lp0
.(lp0
.(lp0
.(lp0
.(lp0
.(lp0
.(lp0
.(lp0
.(lp0
.(lp0
.(lp0
.(lp0
.(lp0
.(lp0
.(lp0
.(lp0
.(lp0
.(lp0
(lp1
S'saveWebContents'
p2
aS'002036'
p3
aa.(lp0
.(lp0
.(lp0
.(lp0
.(lp0
.(lp0
.(lp0
.(lp0
.(lp0
.(lp0
.(lp0
.(lp0
.(lp0
.(lp0
.(lp0
.(lp0
.(lp0
.(lp0
.(lp0
.(lp0
.(lp0
.(lp0
.(lp0
.(lp0
.(lp0
.(lp0
.(lp0
.(lp0
.(lp0
.(lp0
.(lp0
.(lp0
.(lp0
.(lp0
.(lp0
.(lp0
.(lp0
.(lp0
.(lp0
.(lp0
.(lp0
.(lp0
.(lp0
.(lp0
.(lp0
.(lp0
.(lp0
(lp1
S'parserWebContents'
p2
aS'005852'
p3
aa.(lp0
.(lp0
.(lp0
.(lp0
.(lp0
.(lp0
.(lp0
.(lp0
.(lp0
.(lp0
.(lp0
.(lp0
.(lp0
.(lp0
.(lp0
.(lp0
.(lp0
.(lp0
.(lp0
.(lp0
.(lp0
.(lp0
.(lp0
.(lp0
.(lp0
.(lp0
.(lp0
.(lp0
.(lp0
.(lp0
.(lp0
.(lp0
.(lp0
.(lp0
.(lp0
.(lp0
.(lp0
.(lp0
.(lp0
.(lp0
.(lp0
.(lp0
.(lp0
.(lp0
.(lp0
.(lp0
.(lp0
.(lp0
.(lp0
.(lp0
.(lp0
.(lp0
.(lp0
.(lp0
.(lp0
.(lp0
.(lp0
.(lp0
.(lp0
.(lp0
.(lp0
.(lp0
.(lp0
.(lp0
(lp1
S'saveWebContents'
p2
aS'519183'
p3
aa.(lp0
.(lp0
.(lp0
.(lp0
.(lp0
.(lp0
.(lp0
.(lp0
.(lp0
.(lp0
.(lp0
.(lp0
.(lp0
.(lp0
(lp1
S'saveWebContents'
p2
aS'001379'
p3
aa.(lp0
.(lp0
.(lp0
.(lp0
.(lp0
.(lp0
.(lp0
.(lp0
.(lp0
.(lp0
.(lp0
.(lp0
.(lp0
.(lp0
.(lp0
.(lp0
.(lp0
.(lp0
.(lp0
.(lp0
.(lp0
.(lp0
.(lp0
.(lp0
.(lp0
.(lp0
.(lp0
.(lp0
.(lp0
.(lp0
(lp1
S'saveWebContents'
p2
aS'000692'
p3
aa.(lp0
.(lp0
.(lp0
.(lp0
.(lp0
.(lp0
.(lp0
(lp1
S'saveWebContents'
p2
aS'519157'
p3
aa.(lp0
.(lp0
(lp1
S'saveWebContents'
p2
aS'000174'
p3
aa.(lp0
.(lp0
.(lp0
.(lp0
.(lp0
.(lp0
.(lp0
.(lp0
.(lp0
(lp1
S'saveWebContents'
p2
aS'004746'
p3
aa.(lp0
.(lp0
.(lp0
.(lp0
.(lp0
.(lp0
.(lp0
.(lp0
.(lp0
.(lp0
.(lp0
.(lp0
.(lp0
.(lp0
.(lp0
.(lp0
.(lp0
(lp1
S'saveWebContents'
p2
aS'002534'
p3
aa.(lp0
.(lp0
.(lp0
(lp1
S'saveWebContents'
p2
aS'160513'
p3
aa.(lp0
.(lp0
.(lp0
.(lp0
.(lp0
.(lp0
.(lp0
.(lp0
.(lp0
.(lp0
.(lp0
.(lp0
.(lp0
.(lp0
.(lp0
.(lp0
.(lp0
.(lp0
.(lp0
.(lp0
.(lp0
.(lp0
.(lp0
.(lp0
.(lp0
.(lp0
.(lp0
.(lp0
.(lp0
.(lp0
.(lp0
.(lp0
.(lp0
.(lp0
(lp1
S'saveWebContents'
p2
aS'000423'
p3
aa.(lp0
.(lp0
.(lp0
.(lp0
.(lp0
.(lp0
.(lp0
.(lp0
.(lp0
.(lp0
.(lp0
.(lp0
.(lp0
.(lp0
.(lp0
.(lp0
.(lp0
.(lp0
.(lp0
.(lp0
.(lp0
(lp1
S'saveWebContents'
p2
aS'004651'
p3
aa.(lp0
.(lp0
.(lp0
.(lp0
.(lp0
.(lp0
.(lp0
.(lp0
.(lp0
.(lp0
.(lp0
.(lp0
.(lp0
.(lp0
.(lp0
.(lp0
.(lp0
.(lp0
.(lp0
.(lp0
.(lp0
.(lp0
.(lp0
.(lp0
.(lp0
.(lp0
.(lp0
.(lp0
.(lp0
.(lp0
.(lp0
.(lp0
.(lp0
.(lp0
.(lp0
.(lp0
.(lp0
.(lp0
.(lp0
.(lp0
.(lp0
.(lp0
.(lp0
.(lp0
.(lp0
.(lp0
.(lp0
.(lp0
.(lp0
.(lp0
.(lp0
.(lp0
.(lp0
.(lp0
.(lp0
.(lp0
.(lp0
.(lp0
.(lp0
(lp1
S'saveWebContents'
p2
aS'160226'
p3
aa.(lp0
.(lp0
.(lp0
.(lp0
.(lp0
.(lp0
.(lp0
.(lp0
.(lp0
.(lp0
.(lp0
.(lp0
.(lp0
.(lp0
.(lp0
.(lp0
.(lp0
.(lp0
.(lp0
.(lp0
.(lp0
.(lp0
.(lp0
.(lp0
.(lp0
.(lp0
.(lp0
.(lp0
.(lp0
.(lp0
.(lp0
.(lp0
.(lp0
.(lp0
.(lp0
(lp1
S'saveWebContents'
p2
aS'001939'
p3
aa.(lp0
.(lp0
.(lp0
.(lp0
.(lp0
(lp1
S'saveWebContents'
p2
aS'001638'
p3
aa.(lp0
.(lp0
(lp1
S'saveWebContents'
p2
aS'002131'
p3
aa.(lp0
.(lp0
.(lp0
.(lp0
.(lp0
.(lp0
.(lp0
.(lp0
.(lp0
.(lp0
.(lp0
.(lp0
.(lp0
.(lp0
.(lp0
.(lp0
.(lp0
.(lp0
.(lp0
.(lp0
.(lp0
.(lp0
.(lp0
.(lp0
.(lp0
.(lp0
.(lp0
.(lp0
.(lp0
.(lp0
.(lp0
.(lp0
.(lp0
.(lp0
.(lp0
.(lp0
.(lp0
.(lp0
.(lp0
.(lp0
.(lp0
.(lp0
.(lp0
.(lp0
.(lp0
.(lp0
.(lp0
.(lp0
.(lp0
.(lp0
.(lp0
.(lp0
.(lp0
.(lp0
.(lp0
(lp1
S'parserWebContents'
p2
aS'005152'
p3
aa.(lp0
.(lp0
.(lp0
.(lp0
.(lp0
.(lp0
.(lp0
.(lp0
(lp1
S'saveWebContents'
p2
aS'001597'
p3
aa.(lp0
.(lp0
.(lp0
.(lp0
.(lp0
.(lp0
.(lp0
.(lp0
.(lp0
.(lp0
.(lp0
.(lp0
.(lp0
.(lp0
.(lp0
.(lp0
.(lp0
.(lp0
.(lp0
.(lp0
.(lp0
.(lp0
.(lp0
.(lp0
.(lp0
(lp1
S'saveWebContents'
p2
aS'001868'
p3
aa.(lp0
.(lp0
.(lp0
.(lp0
.(lp0
.(lp0
.(lp0
.(lp0
.(lp0
.(lp0
.(lp0
.(lp0
.(lp0
.(lp0
.(lp0
.(lp0
.(lp0
.(lp0
.(lp0
.(lp0
.(lp0
.(lp0
.(lp0
.(lp0
.(lp0
.(lp0
.(lp0
.(lp0
.(lp0
.(lp0
.(lp0
.(lp0
.(lp0
.(lp0
.(lp0
.(lp0
.(lp0
.(lp0
.(lp0
.(lp0
.(lp0
.(lp0
.(lp0
.(lp0
.(lp0
.(lp0
.(lp0
.(lp0
.(lp0
.(lp0
.(lp0
.(lp0
(lp1
S'saveWebContents'
p2
aS'002671'
p3
aa.(lp0
.(lp0
.(lp0
.(lp0
.(lp0
.(lp0
.(lp0
.(lp0
(lp1
S'saveWebContents'
p2
aS'003120'
p3
aa.(lp0
.(lp0
.(lp0
.(lp0
.(lp0
.(lp0
.(lp0
.(lp0
.(lp0
.(lp0
.(lp0
.(lp0
.(lp0
.(lp0
.(lp0
.(lp0
.(lp0
.(lp0
.(lp0
.(lp0
.(lp0
.(lp0
.(lp0
.(lp0
.(lp0
.(lp0
.(lp0
.(lp0
.(lp0
.(lp0
.(lp0
.(lp0
.(lp0
.(lp0
.(lp0
.(lp0
.(lp0
.(lp0
.(lp0
.(lp0
.(lp0
.(lp0
(lp1
S'saveWebContents'
p2
aS'002339'
p3
aa.(lp0
.(lp0
.(lp0
.(lp0
.(lp0
.(lp0
.(lp0
.(lp0
.(lp0
.(lp0
.(lp0
.(lp0
.(lp0
.(lp0
.(lp0
.(lp0
.(lp0
.(lp0
.(lp0
.(lp0
.(lp0
.(lp0
.(lp0
.(lp0
.(lp0
.(lp0
.(lp0
.(lp0
.(lp0
.(lp0
.(lp0
.(lp0
.(lp0
.(lp0
.(lp0
.(lp0
.(lp0
.(lp0
.(lp0
.(lp0
.(lp0
.(lp0
.(lp0
.(lp0
.(lp0
(lp1
S'saveWebContents'
p2
aS'519961'
p3
aa.(lp0
(lp1
S'saveWebContents'
p2
aS'002728'
p3
aa.(lp0
.(lp0
.(lp0
.(lp0
.(lp0
.(lp0
.(lp0
.(lp0
.(lp0
.(lp0
.(lp0
(lp1
S'saveWebContents'
p2
aS'001338'
p3
aa.(lp0
.(lp0
.(lp0
.(lp0
.(lp0
.(lp0
.(lp0
.(lp0
.(lp0
.(lp0
.(lp0
.(lp0
.(lp0
.(lp0
.(lp0
.(lp0
.(lp0
.(lp0
.(lp0
.(lp0
.(lp0
.(lp0
.(lp0
.(lp0
.(lp0
(lp1
S'saveWebContents'
p2
aS'002193'
p3
aa.(lp0
.(lp0
.(lp0
.(lp0
.(lp0
.(lp0
.(lp0
.(lp0
.(lp0
(lp1
S'saveWebContents'
p2
aS'002417'
p3
aa.(lp0
.(lp0
.(lp0
.(lp0
.(lp0
.(lp0
.(lp0
.(lp0
.(lp0
.(lp0
.(lp0
.(lp0
.(lp0
.(lp0
.(lp0
.(lp0
.(lp0
.(lp0
.(lp0
(lp1
S'saveWebContents'
p2
aS'519177'
p3
aa.(lp0
.(lp0
.(lp0
.(lp0
.(lp0
.(lp0
.(lp0
.(lp0
.(lp0
.(lp0
.(lp0
.(lp0
.(lp0
.(lp0
.(lp0
.(lp0
.(lp0
.(lp0
.(lp0
.(lp0
.(lp0
.(lp0
(lp1
S'saveWebContents'
p2
aS'001607'
p3
aa.(lp0
.(lp0
.(lp0
.(lp0
.(lp0
.(lp0
.(lp0
.(lp0
.(lp0
.(lp0
.(lp0
.(lp0
(lp1
S'saveWebContents'
p2
aS'004333'
p3
aa.(lp0
.(lp0
.(lp0
.(lp0
.(lp0
.(lp0
.(lp0
.(lp0
.(lp0
.(lp0
.(lp0
.(lp0
.(lp0
.(lp0
.(lp0
.(lp0
.(lp0
(lp1
S'saveWebContents'
p2
aS'002779'
p3
aa.(lp0
(lp1
S'saveWebContents'
p2
aS'002071'
p3
aa.(lp0
.(lp0
.(lp0
.(lp0
.(lp0
.(lp0
.(lp0
.(lp0
.(lp0
.(lp0
.(lp0
.(lp0
.(lp0
.(lp0
.(lp0
.(lp0
.(lp0
(lp1
S'saveWebContents'
p2
aS'002627'
p3
aa.(lp0
.(lp0
.(lp0
.(lp0
(lp1
S'saveWebContents'
p2
aS'001331'
p3
aa.(lp0
.(lp0
.(lp0
.(lp0
.(lp0
.(lp0
.(lp0
.(lp0
.(lp0
(lp1
S'saveWebContents'
p2
aS'001142'
p3
aa.(lp0
.(lp0
.(lp0
(lp1
S'saveWebContents'
p2
aS'001330'
p3
aa.(lp0
.(lp0
.(lp0
(lp1
S'saveWebContents'
p2
aS'001347'
p3
aa.(lp0
.(lp0
.(lp0
.(lp0
.(lp0
(lp1
S'saveWebContents'
p2
aS'002192'
p3
aa.(lp0
(lp1
S'saveWebContents'
p2
aS'001164'
p3
aa.(lp0
.(lp0
.(lp0
.(lp0
.(lp0
.(lp0
.(lp0
.(lp0
.(lp0
.(lp0
.(lp0
.(lp0
(lp1
S'saveWebContents'
p2
aS'003446'
p3
aa.(lp0
.(lp0
.(lp0
.(lp0
.(lp0
.(lp0
(lp1
S'saveWebContents'
p2
aS'003579'
p3
aa.(lp0
.(lp0
.(lp0
.(lp0
.(lp0
.(lp0
.(lp0
.(lp0
.(lp0
.(lp0
.(lp0
.(lp0
.(lp0
.(lp0
.(lp0
.(lp0
.(lp0
.(lp0
.(lp0
.(lp0
.(lp0
.(lp0
.(lp0
(lp1
S'saveWebContents'
p2
aS'164205'
p3
aa.(lp0
.(lp0
.(lp0
.(lp0
.(lp0
.(lp0
.(lp0
.(lp0
.(lp0
.(lp0
.(lp0
.(lp0
.(lp0
.(lp0
.(lp0
.(lp0
.(lp0
.(lp0
.(lp0
.(lp0
.(lp0
.(lp0
.(lp0
.(lp0
.(lp0
.(lp0
.(lp0
.(lp0
.(lp0
.(lp0
.(lp0
(lp1
S'saveWebContents'
p2
aS'002374'
p3
aa.(lp0
.(lp0
.(lp0
.(lp0
.(lp0
.(lp0
.(lp0
.(lp0
(lp1
S'saveWebContents'
p2
aS'519960'
p3
aa.(lp0
.(lp0
.(lp0
.(lp0
.(lp0
(lp1
S'saveWebContents'
p2
aS'002025'
p3
aa.(lp0
.(lp0
.(lp0
.(lp0
.(lp0
.(lp0
.(lp0
.(lp0
.(lp0
.(lp0
.(lp0
.(lp0
.(lp0
.(lp0
.(lp0
(lp1
S'saveWebContents'
p2
aS'210010'
p3
aa.(lp0
(lp1
S'saveWebContents'
p2
aS'001427'
p3
aa.(lp0
.(lp0
.(lp0
.(lp0
.(lp0
.(lp0
.(lp0
.(lp0
.(lp0
.(lp0
.(lp0
.(lp0
.(lp0
.(lp0
.(lp0
.(lp0
.(lp0
.(lp0
.(lp0
.(lp0
.(lp0
.(lp0
.(lp0
(lp1
S'saveWebContents'
p2
aS'070037'
p3
aa.(lp0
.(lp0
.(lp0
(lp1
S'saveWebContents'
p2
aS'001446'
p3
aa.(lp0
.(lp0
(lp1
S'saveWebContents'
p2
aS'004158'
p3
aa.(lp0
.(lp0
.(lp0
.(lp0
.(lp0
.(lp0
.(lp0
.(lp0
.(lp0
.(lp0
.(lp0
.(lp0
.(lp0
(lp1
S'saveWebContents'
p2
aS'002416'
p3
aa.(lp0
.(lp0
.(lp0
.(lp0
.(lp0
.(lp0
.(lp0
.(lp0
.(lp0
.(lp0
.(lp0
.(lp0
.(lp0
.(lp0
.(lp0
.(lp0
.(lp0
.(lp0
.(lp0
.(lp0
.(lp0
.(lp0
.(lp0
(lp1
S'saveWebContents'
p2
aS'070038'
p3
aa.(lp0
.(lp0
.(lp0
.(lp0
.(lp0
.(lp0
.(lp0
.(lp0
.(lp0
.(lp0
.(lp0
.(lp0
(lp1
S'saveWebContents'
p2
aS'002041'
p3
aa.(lp0
.(lp0
.(lp0
.(lp0
.(lp0
.(lp0
.(lp0
.(lp0
.(lp0
.(lp0
.(lp0
(lp1
S'saveWebContents'
p2
aS'001891'
p3
aa.(lp0
.(lp0
(lp1
S'saveWebContents'
p2
aS'001438'
p3
aa.(lp0
.(lp0
.(lp0
.(lp0
.(lp0
.(lp0
.(lp0
.(lp0
.(lp0
.(lp0
.(lp0
.(lp0
.(lp0
.(lp0
.(lp0
.(lp0
.(lp0
.(lp0
.(lp0
.(lp0
.(lp0
.(lp0
.(lp0
.(lp0
.(lp0
.(lp0
.(lp0
.(lp0
.(lp0
.(lp0
.(lp0
.(lp0
.(lp0
.(lp0
.(lp0
.(lp0
(lp1
S'saveWebContents'
p2
aS'003216'
p3
aa.(lp0
.(lp0
.(lp0
.(lp0
.(lp0
.(lp0
.(lp0
.(lp0
.(lp0
.(lp0
.(lp0
.(lp0
.(lp0
.(lp0
.(lp0
.(lp0
.(lp0
.(lp0
.(lp0
.(lp0
.(lp0
.(lp0
.(lp0
.(lp0
.(lp0
.(lp0
.(lp0
.(lp0
.(lp0
.(lp0
(lp1
S'saveWebContents'
p2
aS'001997'
p3
aa.(lp0
.(lp0
(lp1
S'saveWebContents'
p2
aS'003594'
p3
aa.(lp0
.(lp0
.(lp0
.(lp0
.(lp0
.(lp0
.(lp0
.(lp0
.(lp0
.(lp0
.(lp0
.(lp0
.(lp0
.(lp0
.(lp0
.(lp0
.(lp0
.(lp0
.(lp0
.(lp0
.(lp0
.(lp0
.(lp0
.(lp0
.(lp0
.(lp0
.(lp0
.(lp0
.(lp0
.(lp0
(lp1
S'saveWebContents'
p2
aS'002114'
p3
aa.(lp0
.(lp0
.(lp0
.(lp0
.(lp0
.(lp0
.(lp0
.(lp0
.(lp0
(lp1
S'saveWebContents'
p2
aS'002227'
p3
aa.(lp0
.(lp0
.(lp0
.(lp0
.(lp0
.(lp0
.(lp0
.(lp0
.(lp0
.(lp0
.(lp0
.(lp0
.(lp0
.(lp0
.(lp0
.(lp0
.(lp0
.(lp0
.(lp0
.(lp0
.(lp0
.(lp0
.(lp0
.(lp0
.(lp0
.(lp0
.(lp0
.(lp0
.(lp0
.(lp0
.(lp0
.(lp0
.(lp0
.(lp0
.(lp0
.(lp0
.(lp0
.(lp0
.(lp0
.(lp0
.(lp0
.(lp0
.(lp0
.(lp0
.(lp0
.(lp0
.(lp0
.(lp0
.(lp0
.(lp0
.(lp0
.(lp0
.(lp0
.(lp0
.(lp0
.(lp0
.(lp0
.(lp0
.(lp0
.(lp0
.(lp0
.(lp0
.(lp0
.(lp0
.(lp0
.(lp0
.(lp0
.(lp0
.(lp0
.(lp0
.(lp0
.(lp0
.(lp0
.(lp0
.(lp0
.(lp0
.(lp0
.(lp0
(lp1
S'saveWebContents'
p2
aS'004157'
p3
aa.(lp0
.(lp0
.(lp0
.(lp0
.(lp0
.(lp0
.(lp0
.(lp0
.(lp0
.(lp0
.(lp0
.(lp0
.(lp0
.(lp0
.(lp0
.(lp0
.(lp0
.(lp0
.(lp0
.(lp0
.(lp0
.(lp0
.(lp0
.(lp0
.(lp0
.(lp0
.(lp0
.(lp0
(lp1
S'saveWebContents'
p2
aS'001484'
p3
aa.(lp0
(lp1
S'saveWebContents'
p2
aS'002039'
p3
aa.(lp0
.(lp0
.(lp0
.(lp0
.(lp0
.(lp0
.(lp0
.(lp0
.(lp0
.(lp0
.(lp0
.(lp0
.(lp0
.(lp0
.(lp0
(lp1
S'saveWebContents'
p2
aS'001116'
p3
aa.(lp0
.(lp0
(lp1
S'saveWebContents'
p2
aS'003886'
p3
aa.(lp0
.(lp0
.(lp0
.(lp0
.(lp0
.(lp0
.(lp0
.(lp0
.(lp0
.(lp0
.(lp0
.(lp0
.(lp0
.(lp0
.(lp0
.(lp0
.(lp0
.(lp0
.(lp0
.(lp0
(lp1
S'saveWebContents'
p2
aS'001194'
p3
aa.(lp0
.(lp0
.(lp0
.(lp0
.(lp0
.(lp0
.(lp0
.(lp0
.(lp0
.(lp0
.(lp0
(lp1
S'saveWebContents'
p2
aS'003247'
p3
aa.(lp0
(lp1
S'saveWebContents'
p2
aS'002013'
p3
aa.(lp0
.(lp0
.(lp0
.(lp0
.(lp0
.(lp0
.(lp0
.(lp0
.(lp0
.(lp0
(lp1
S'saveWebContents'
p2
aS'001796'
p3
aa.(lp0
.(lp0
(lp1
S'saveWebContents'
p2
aS'002026'
p3
aa.(lp0
.(lp0
.(lp0
.(lp0
.(lp0
.(lp0
.(lp0
.(lp0
.(lp0
.(lp0
.(lp0
.(lp0
.(lp0
.(lp0
.(lp0
.(lp0
.(lp0
.(lp0
.(lp0
.(lp0
.(lp0
.(lp0
.(lp0
.(lp0
.(lp0
.(lp0
.(lp0
.(lp0
.(lp0
.(lp0
.(lp0
.(lp0
.(lp0
.(lp0
.(lp0
(lp1
S'saveWebContents'
p2
aS'001488'
p3
aa.(lp0
.(lp0
.(lp0
.(lp0
.(lp0
.(lp0
.(lp0
(lp1
S'saveWebContents'
p2
aS'001147'
p3
aa.(lp0
.(lp0
.(lp0
.(lp0
.(lp0
.(lp0
.(lp0
.(lp0
.(lp0
.(lp0
.(lp0
.(lp0
.(lp0
.(lp0
.(lp0
.(lp0
.(lp0
.(lp0
.(lp0
.(lp0
.(lp0
.(lp0
.(lp0
(lp1
S'saveWebContents'
p2
aS'001727'
p3
aa.(lp0
.(lp0
.(lp0
.(lp0
.(lp0
.(lp0
.(lp0
.(lp0
.(lp0
.(lp0
.(lp0
.(lp0
.(lp0
(lp1
S'saveWebContents'
p2
aS'162715'
p3
aa.(lp0
.(lp0
.(lp0
.(lp0
(lp1
S'saveWebContents'
p2
aS'001522'
p3
aa.(lp0
.(lp0
.(lp0
.(lp0
.(lp0
.(lp0
.(lp0
.(lp0
.(lp0
(lp1
S'saveWebContents'
p2
aS'002099'
p3
aa.(lp0
.(lp0
.(lp0
.(lp0
.(lp0
.(lp0
.(lp0
.(lp0
.(lp0
.(lp0
.(lp0
.(lp0
.(lp0
.(lp0
.(lp0
.(lp0
.(lp0
.(lp0
(lp1
S'saveWebContents'
p2
aS'001904'
p3
aa.(lp0
.(lp0
.(lp0
.(lp0
.(lp0
.(lp0
.(lp0
(lp1
S'saveWebContents'
p2
aS'002441'
p3
aa.(lp0
.(lp0
.(lp0
(lp1
S'saveWebContents'
p2
aS'001507'
p3
aa.(lp0
(lp1
S'saveWebContents'
p2
aS'519191'
p3
aa.(lp0
.(lp0
.(lp0
.(lp0
.(lp0
.(lp0
.(lp0
.(lp0
.(lp0
.(lp0
(lp1
S'saveWebContents'
p2
aS'519022'
p3
aa.(lp0
.(lp0
.(lp0
.(lp0
.(lp0
.(lp0
(lp1
S'saveWebContents'
p2
aS'001407'
p3
aa.(lp0
.(lp0
.(lp0
.(lp0
.(lp0
.(lp0
(lp1
S'saveWebContents'
p2
aS'002233'
p3
aa.(lp0
.(lp0
.(lp0
.(lp0
.(lp0
.(lp0
.(lp0
.(lp0
.(lp0
.(lp0
.(lp0
(lp1
S'saveWebContents'
p2
aS'001337'
p3
aa.(lp0
.(lp0
.(lp0
.(lp0
.(lp0
.(lp0
.(lp0
.(lp0
.(lp0
(lp1
S'saveWebContents'
p2
aS'002097'
p3
aa.(lp0
.(lp0
.(lp0
.(lp0
.(lp0
.(lp0
.(lp0
(lp1
S'saveWebContents'
p2
aS'002309'
p3
aa.(lp0
.(lp0
.(lp0
.(lp0
(lp1
S'saveWebContents'
p2
aS'675011'
p3
aa.(lp0
.(lp0
.(lp0
.(lp0
.(lp0
.(lp0
.(lp0
.(lp0
.(lp0
.(lp0
.(lp0
.(lp0
.(lp0
.(lp0
.(lp0
.(lp0
.(lp0
.(lp0
.(lp0
.(lp0
.(lp0
(lp1
S'saveWebContents'
p2
aS'002015'
p3
aa.(lp0
.(lp0
.(lp0
.(lp0
.(lp0
.(lp0
.(lp0
.(lp0
.(lp0
.(lp0
.(lp0
.(lp0
.(lp0
.(lp0
.(lp0
.(lp0
.(lp0
.(lp0
.(lp0
.(lp0
.(lp0
.(lp0
.(lp0
.(lp0
.(lp0
.(lp0
.(lp0
.(lp0
.(lp0
.(lp0
.(lp0
.(lp0
.(lp0
.(lp0
.(lp0
.(lp0
(lp1
S'saveWebContents'
p2
aS'001444'
p3
aa.(lp0
.(lp0
.(lp0
.(lp0
.(lp0
.(lp0
.(lp0
.(lp0
.(lp0
.(lp0
.(lp0
.(lp0
.(lp0
.(lp0
.(lp0
.(lp0
.(lp0
.(lp0
.(lp0
.(lp0
.(lp0
(lp1
S'saveWebContents'
p2
aS'004289'
p3
aa.(lp0
.(lp0
.(lp0
.(lp0
(lp1
S'saveWebContents'
p2
aS'002162'
p3
aa.(lp0
.(lp0
.(lp0
(lp1
S'saveWebContents'
p2
aS'002139'
p3
aa.(lp0
.(lp0
.(lp0
.(lp0
(lp1
S'saveWebContents'
p2
aS'004118'
p3
aa.(lp0
.(lp0
.(lp0
.(lp0
.(lp0
.(lp0
.(lp0
(lp1
S'saveWebContents'
p2
aS'001206'
p3
aa.(lp0
.(lp0
.(lp0
.(lp0
.(lp0
.(lp0
.(lp0
.(lp0
.(lp0
.(lp0
.(lp0
.(lp0
(lp1
S'saveWebContents'
p2
aS'001775'
p3
aa.(lp0
.(lp0
.(lp0
.(lp0
.(lp0
.(lp0
.(lp0
(lp1
S'saveWebContents'
p2
aS'002727'
p3
aa.(lp0
(lp1
S'saveWebContents'
p2
aS'002637'
p3
aa.(lp0
.(lp0
.(lp0
.(lp0
.(lp0
.(lp0
.(lp0
.(lp0
.(lp0
.(lp0
.(lp0
.(lp0
.(lp0
.(lp0
.(lp0
.(lp0
.(lp0
.(lp0
.(lp0
.(lp0
.(lp0
.(lp0
.(lp0
.(lp0
.(lp0
.(lp0
.(lp0
.(lp0
.(lp0
.(lp0
.(lp0
.(lp0
.(lp0
.(lp0
.(lp0
.(lp0
.(lp0
.(lp0
.(lp0
.(lp0
.(lp0
.(lp0
.(lp0
.(lp0
.(lp0
.(lp0
.(lp0
.(lp0
(lp1
S'saveWebContents'
p2
aS'002089'
p3
aa.(lp0
.(lp0
.(lp0
.(lp0
.(lp0
.(lp0
.(lp0
.(lp0
.(lp0
.(lp0
.(lp0
.(lp0
.(lp0
.(lp0
.(lp0
.(lp0
(lp1
S'saveWebContents'
p2
aS'003578'
p3
aa.(lp0
.(lp0
.(lp0
.(lp0
.(lp0
(lp1
S'saveWebContents'
p2
aS'002582'
p3
aa.(lp0
(lp1
S'saveWebContents'
p2
aS'002136'
p3
aa.(lp0
.(lp0
.(lp0
.(lp0
.(lp0
.(lp0
.(lp0
.(lp0
.(lp0
.(lp0
.(lp0
.(lp0
.(lp0
.(lp0
.(lp0
.(lp0
.(lp0
.(lp0
(lp1
S'saveWebContents'
p2
aS'001423'
p3
aa.(lp0
.(lp0
.(lp0
.(lp0
.(lp0
.(lp0
.(lp0
.(lp0
.(lp0
.(lp0
.(lp0
.(lp0
.(lp0
.(lp0
.(lp0
.(lp0
.(lp0
.(lp0
.(lp0
.(lp0
.(lp0
.(lp0
(lp1
S'saveWebContents'
p2
aS'001489'
p3
aa.(lp0
.(lp0
.(lp0
.(lp0
.(lp0
.(lp0
.(lp0
.(lp0
.(lp0
.(lp0
.(lp0
.(lp0
.(lp0
.(lp0
.(lp0
.(lp0
.(lp0
.(lp0
.(lp0
.(lp0
.(lp0
.(lp0
.(lp0
.(lp0
.(lp0
.(lp0
.(lp0
.(lp0
.(lp0
(lp1
S'saveWebContents'
p2
aS'003255'
p3
aa.(lp0
.(lp0
.(lp0
.(lp0
.(lp0
(lp1
S'saveWebContents'
p2
aS'519224'
p3
aa.(lp0
.(lp0
.(lp0
.(lp0
.(lp0
.(lp0
.(lp0
.(lp0
.(lp0
.(lp0
(lp1
S'saveWebContents'
p2
aS'002178'
p3
aa.(lp0
.(lp0
.(lp0
(lp1
S'saveWebContents'
p2
aS'002941'
p3
aa.(lp0
.(lp0
.(lp0
.(lp0
.(lp0
.(lp0
.(lp0
.(lp0
.(lp0
.(lp0
.(lp0
.(lp0
.(lp0
.(lp0
.(lp0
(lp1
S'saveWebContents'
p2
aS'001777'
p3
aa.(lp0
.(lp0
.(lp0
.(lp0
.(lp0
.(lp0
.(lp0
.(lp0
.(lp0
.(lp0
.(lp0
.(lp0
.(lp0
.(lp0
.(lp0
.(lp0
.(lp0
.(lp0
.(lp0
.(lp0
.(lp0
.(lp0
.(lp0
.(lp0
(lp1
S'saveWebContents'
p2
aS'001406'
p3
aa.(lp0
.(lp0
.(lp0
.(lp0
.(lp0
.(lp0
.(lp0
.(lp0
.(lp0
.(lp0
.(lp0
.(lp0
.(lp0
.(lp0
.(lp0
.(lp0
.(lp0
.(lp0
.(lp0
.(lp0
.(lp0
.(lp0
.(lp0
.(lp0
.(lp0
(lp1
S'saveWebContents'
p2
aS'675091'
p3
aa.(lp0
.(lp0
.(lp0
.(lp0
.(lp0
.(lp0
(lp1
S'saveWebContents'
p2
aS'003798'
p3
aa.(lp0
.(lp0
.(lp0
.(lp0
.(lp0
.(lp0
.(lp0
.(lp0
.(lp0
(lp1
S'saveWebContents'
p2
aS'002515'
p3
aa.(lp0
.(lp0
.(lp0
.(lp0
.(lp0
.(lp0
.(lp0
.(lp0
.(lp0
.(lp0
.(lp0
.(lp0
.(lp0
.(lp0
.(lp0
.(lp0
.(lp0
(lp1
S'saveWebContents'
p2
aS'673083'
p3
aa.(lp0
.(lp0
.(lp0
.(lp0
.(lp0
.(lp0
.(lp0
.(lp0
.(lp0
(lp1
S'saveWebContents'
p2
aS'003804'
p3
aa.(lp0
.(lp0
.(lp0
.(lp0
.(lp0
.(lp0
.(lp0
.(lp0
.(lp0
.(lp0
.(lp0
.(lp0
.(lp0
.(lp0
.(lp0
.(lp0
.(lp0
.(lp0
.(lp0
.(lp0
.(lp0
(lp1
S'saveWebContents'
p2
aS'004636'
p3
aa.(lp0
.(lp0
.(lp0
.(lp0
.(lp0
.(lp0
.(lp0
.(lp0
.(lp0
.(lp0
.(lp0
.(lp0
.(lp0
(lp1
S'saveWebContents'
p2
aS'003922'
p3
aa.(lp0
.(lp0
.(lp0
.(lp0
.(lp0
.(lp0
.(lp0
.(lp0
.(lp0
.(lp0
.(lp0
.(lp0
(lp1
S'saveWebContents'
p2
aS'003734'
p3
aa.(lp0
.(lp0
.(lp0
.(lp0
.(lp0
.(lp0
.(lp0
.(lp0
.(lp0
(lp1
S'saveWebContents'
p2
aS'519629'
p3
aa.(lp0
.(lp0
(lp1
S'saveWebContents'
p2
aS'003812'
p3
aa.(lp0
.(lp0
.(lp0
(lp1
S'saveWebContents'
p2
aS'003282'
p3
aa.(lp0
.(lp0
.(lp0
.(lp0
.(lp0
.(lp0
.(lp0
.(lp0
.(lp0
.(lp0
.(lp0
.(lp0
.(lp0
.(lp0
.(lp0
.(lp0
.(lp0
.(lp0
.(lp0
.(lp0
.(lp0
.(lp0
.(lp0
.(lp0
.(lp0
.(lp0
.(lp0
.(lp0
.(lp0
.(lp0
.(lp0
.(lp0
.(lp0
.(lp0
(lp1
S'saveWebContents'
p2
aS'673073'
p3
aa.(lp0
.(lp0
.(lp0
.(lp0
.(lp0
.(lp0
.(lp0
.(lp0
.(lp0
.(lp0
.(lp0
.(lp0
.(lp0
.(lp0
.(lp0
.(lp0
.(lp0
.(lp0
.(lp0
.(lp0
.(lp0
.(lp0
.(lp0
.(lp0
.(lp0
.(lp0
.(lp0
.(lp0
.(lp0
.(lp0
.(lp0
.(lp0
.(lp0
.(lp0
.(lp0
(lp1
S'saveWebContents'
p2
aS'531017'
p3
aa.(lp0
.(lp0
.(lp0
.(lp0
(lp1
S'saveWebContents'
p2
aS'002087'
p3
aa.(lp0
.(lp0
.(lp0
.(lp0
.(lp0
(lp1
S'saveWebContents'
p2
aS'003912'
p3
aa.(lp0
.(lp0
.(lp0
.(lp0
.(lp0
.(lp0
.(lp0
.(lp0
.(lp0
.(lp0
.(lp0
.(lp0
.(lp0
.(lp0
.(lp0
.(lp0
.(lp0
.(lp0
.(lp0
.(lp0
.(lp0
(lp1
S'saveWebContents'
p2
aS'001571'
p3
aa.(lp0
.(lp0
.(lp0
.(lp0
.(lp0
.(lp0
.(lp0
.(lp0
.(lp0
.(lp0
.(lp0
.(lp0
.(lp0
.(lp0
.(lp0
.(lp0
.(lp0
.(lp0
.(lp0
.(lp0
.(lp0
.(lp0
.(lp0
.(lp0
.(lp0
(lp1
S'saveWebContents'
p2
aS'001454'
p3
aa.(lp0
.(lp0
.(lp0
(lp1
S'saveWebContents'
p2
aS'002327'
p3
aa.(lp0
.(lp0
.(lp0
(lp1
S'saveWebContents'
p2
aS'003108'
p3
aa.(lp0
.(lp0
.(lp0
.(lp0
.(lp0
.(lp0
(lp1
S'saveWebContents'
p2
aS'004193'
p3
aa.(lp0
.(lp0
.(lp0
.(lp0
.(lp0
.(lp0
.(lp0
.(lp0
.(lp0
.(lp0
.(lp0
.(lp0
.(lp0
.(lp0
.(lp0
.(lp0
.(lp0
.(lp0
.(lp0
.(lp0
.(lp0
.(lp0
.(lp0
.(lp0
.(lp0
.(lp0
.(lp0
.(lp0
.(lp0
.(lp0
.(lp0
.(lp0
.(lp0
.(lp0
.(lp0
.(lp0
.(lp0
.(lp0
.(lp0
.(lp0
.(lp0
.(lp0
.(lp0
.(lp0
(lp1
S'saveWebContents'
p2
aS'002117'
p3
aa.(lp0
.(lp0
.(lp0
.(lp0
.(lp0
.(lp0
.(lp0
.(lp0
.(lp0
.(lp0
.(lp0
.(lp0
.(lp0
.(lp0
.(lp0
.(lp0
(lp1
S'saveWebContents'
p2
aS'003613'
p3
aa.(lp0
.(lp0
.(lp0
.(lp0
.(lp0
.(lp0
.(lp0
.(lp0
.(lp0
.(lp0
.(lp0
.(lp0
.(lp0
.(lp0
.(lp0
.(lp0
.(lp0
.(lp0
.(lp0
.(lp0
.(lp0
.(lp0
.(lp0
.(lp0
.(lp0
.(lp0
.(lp0
.(lp0
.(lp0
.(lp0
.(lp0
.(lp0
.(lp0
.(lp0
.(lp0
.(lp0
.(lp0
.(lp0
.(lp0
.(lp0
.(lp0
.(lp0
.(lp0
.(lp0
.(lp0
(lp1
S'saveWebContents'
p2
aS'003372'
p3
aa.(lp0
.(lp0
.(lp0
.(lp0
.(lp0
.(lp0
.(lp0
.(lp0
.(lp0
.(lp0
.(lp0
.(lp0
.(lp0
(lp1
S'parserWebContents'
p2
aS'005763'
p3
aa.(lp0
.(lp0
.(lp0
.(lp0
.(lp0
.(lp0
.(lp0
.(lp0
.(lp0
(lp1
S'saveWebContents'
p2
aS'001572'
p3
aa.(lp0
.(lp0
(lp1
S'saveWebContents'
p2
aS'002046'
p3
aa.(lp0
.(lp0
.(lp0
.(lp0
.(lp0
.(lp0
.(lp0
.(lp0
.(lp0
.(lp0
.(lp0
.(lp0
.(lp0
.(lp0
.(lp0
.(lp0
.(lp0
.(lp0
.(lp0
.(lp0
.(lp0
.(lp0
.(lp0
.(lp0
.(lp0
.(lp0
.(lp0
(lp1
S'saveWebContents'
p2
aS'002774'
p3
aa.(lp0
.(lp0
.(lp0
.(lp0
.(lp0
.(lp0
.(lp0
.(lp0
.(lp0
.(lp0
.(lp0
.(lp0
.(lp0
.(lp0
.(lp0
.(lp0
.(lp0
.(lp0
.(lp0
.(lp0
.(lp0
.(lp0
.(lp0
.(lp0
.(lp0
.(lp0
.(lp0
.(lp0
.(lp0
.(lp0
.(lp0
.(lp0
.(lp0
.(lp0
.(lp0
.(lp0
.(lp0
.(lp0
.(lp0
.(lp0
.(lp0
.(lp0
.(lp0
(lp1
S'saveWebContents'
p2
aS'002092'
p3
aa.(lp0
(lp1
S'saveWebContents'
p2
aS'003235'
p3
aa.(lp0
.(lp0
.(lp0
.(lp0
.(lp0
.(lp0
.(lp0
.(lp0
.(lp0
.(lp0
.(lp0
.(lp0
(lp1
S'saveWebContents'
p2
aS'002548'
p3
aa.(lp0
.(lp0
.(lp0
.(lp0
.(lp0
.(lp0
(lp1
S'saveWebContents'
p2
aS'004043'
p3
aa.(lp0
.(lp0
.(lp0
.(lp0
.(lp0
.(lp0
.(lp0
.(lp0
(lp1
S'saveWebContents'
p2
aS'003357'
p3
aa.(lp0
.(lp0
.(lp0
.(lp0
.(lp0
.(lp0
.(lp0
.(lp0
.(lp0
.(lp0
.(lp0
.(lp0
(lp1
S'saveWebContents'
p2
aS'002091'
p3
aa.(lp0
.(lp0
.(lp0
.(lp0
.(lp0
.(lp0
.(lp0
(lp1
S'saveWebContents'
p2
aS'001686'
p3
aa.(lp0
.(lp0
.(lp0
.(lp0
.(lp0
.(lp0
.(lp0
.(lp0
.(lp0
(lp1
S'saveWebContents'
p2
aS'002009'
p3
aa.(lp0
.(lp0
.(lp0
.(lp0
.(lp0
.(lp0
.(lp0
.(lp0
(lp1
S'saveWebContents'
p2
aS'003143'
p3
aa.(lp0
.(lp0
.(lp0
.(lp0
.(lp0
.(lp0
.(lp0
.(lp0
.(lp0
.(lp0
.(lp0
.(lp0
.(lp0
.(lp0
.(lp0
.(lp0
.(lp0
.(lp0
.(lp0
.(lp0
.(lp0
.(lp0
.(lp0
.(lp0
.(lp0
.(lp0
.(lp0
.(lp0
.(lp0
.(lp0
.(lp0
.(lp0
.(lp0
.(lp0
.(lp0
.(lp0
.(lp0
(lp1
S'saveWebContents'
p2
aS'001724'
p3
aa.(lp0
.(lp0
.(lp0
.(lp0
.(lp0
.(lp0
.(lp0
.(lp0
.(lp0
.(lp0
.(lp0
.(lp0
.(lp0
.(lp0
.(lp0
.(lp0
.(lp0
.(lp0
.(lp0
.(lp0
.(lp0
.(lp0
.(lp0
(lp1
S'saveWebContents'
p2
aS'003218'
p3
aa.(lp0
.(lp0
.(lp0
.(lp0
.(lp0
.(lp0
.(lp0
.(lp0
.(lp0
.(lp0
.(lp0
.(lp0
.(lp0
.(lp0
.(lp0
.(lp0
.(lp0
.(lp0
.(lp0
.(lp0
.(lp0
.(lp0
.(lp0
.(lp0
.(lp0
.(lp0
.(lp0
.(lp0
.(lp0
.(lp0
.(lp0
.(lp0
.(lp0
.(lp0
.(lp0
.(lp0
.(lp0
.(lp0
.(lp0
.(lp0
.(lp0
.(lp0
.(lp0
.(lp0
.(lp0
.(lp0
.(lp0
.(lp0
.(lp0
.(lp0
.(lp0
.(lp0
.(lp0
.(lp0
.(lp0
.(lp0
.(lp0
.(lp0
.(lp0
.(lp0
.(lp0
.(lp0
.(lp0
.(lp0
.(lp0
.(lp0
.(lp0
.(lp0
.(lp0
.(lp0
.(lp0
.(lp0
.(lp0
.(lp0
.(lp0
.(lp0
.(lp0
.(lp0
.(lp0
.(lp0
.(lp0
.(lp0
.(lp0
.(lp0
.(lp0
.(lp0
.(lp0
.(lp0
.(lp0
.(lp0
.(lp0
.(lp0
(lp1
S'saveWebContents'
p2
aS'004176'
p3
aa.(lp0
.(lp0
.(lp0
.(lp0
.(lp0
.(lp0
.(lp0
.(lp0
.(lp0
.(lp0
.(lp0
.(lp0
.(lp0
.(lp0
.(lp0
.(lp0
.(lp0
.(lp0
.(lp0
.(lp0
.(lp0
.(lp0
.(lp0
.(lp0
.(lp0
.(lp0
.(lp0
.(lp0
.(lp0
.(lp0
.(lp0
.(lp0
.(lp0
.(lp0
.(lp0
(lp1
S'saveWebContents'
p2
aS'004560'
p3
aa.(lp0
.(lp0
.(lp0
.(lp0
.(lp0
.(lp0
.(lp0
.(lp0
.(lp0
.(lp0
.(lp0
.(lp0
.(lp0
.(lp0
.(lp0
.(lp0
.(lp0
.(lp0
.(lp0
.(lp0
.(lp0
.(lp0
.(lp0
.(lp0
.(lp0
.(lp0
.(lp0
.(lp0
.(lp0
.(lp0
.(lp0
.(lp0
.(lp0
.(lp0
.(lp0
.(lp0
.(lp0
.(lp0
.(lp0
.(lp0
.(lp0
.(lp0
.(lp0
.(lp0
.(lp0
.(lp0
.(lp0
.(lp0
.(lp0
.(lp0
.(lp0
.(lp0
.(lp0
.(lp0
.(lp0
.(lp0
.(lp0
.(lp0
(lp1
S'saveWebContents'
p2
aS'000723'
p3
aa.(lp0
.(lp0
.(lp0
.(lp0
.(lp0
.(lp0
.(lp0
.(lp0
(lp1
S'saveWebContents'
p2
aS'004238'
p3
aa.(lp0
.(lp0
.(lp0
.(lp0
.(lp0
.(lp0
.(lp0
.(lp0
.(lp0
.(lp0
.(lp0
.(lp0
.(lp0
.(lp0
.(lp0
.(lp0
.(lp0
.(lp0
.(lp0
.(lp0
.(lp0
.(lp0
.(lp0
.(lp0
.(lp0
.(lp0
.(lp0
.(lp0
.(lp0
.(lp0
.(lp0
.(lp0
.(lp0
.(lp0
.(lp0
.(lp0
.(lp0
.(lp0
.(lp0
.(lp0
.(lp0
.(lp0
.(lp0
.(lp0
.(lp0
.(lp0
.(lp0
.(lp0
.(lp0
.(lp0
.(lp0
(lp1
S'parserWebContents'
p2
aS'005885'
p3
aa.(lp0
.(lp0
.(lp0
.(lp0
.(lp0
.(lp0
.(lp0
.(lp0
.(lp0
.(lp0
.(lp0
.(lp0
.(lp0
.(lp0
.(lp0
.(lp0
.(lp0
.(lp0
.(lp0
.(lp0
.(lp0
.(lp0
.(lp0
.(lp0
.(lp0
.(lp0
.(lp0
.(lp0
.(lp0
.(lp0
.(lp0
.(lp0
.(lp0
.(lp0
.(lp0
.(lp0
.(lp0
.(lp0
.(lp0
.(lp0
.(lp0
.(lp0
.(lp0
.(lp0
.(lp0
.(lp0
.(lp0
.(lp0
.(lp0
.(lp0
.(lp0
.(lp0
.(lp0
.(lp0
.(lp0
.(lp0
.(lp0
.(lp0
.(lp0
.(lp0
.(lp0
.(lp0
.(lp0
.(lp0
.(lp0
.(lp0
.(lp0
.(lp0
.(lp0
.(lp0
.(lp0
.(lp0
.(lp0
.(lp0
.(lp0
.(lp0
.(lp0
.(lp0
.(lp0
.(lp0
(lp1
S'saveWebContents'
p2
aS'003360'
p3
aa.(lp0
.(lp0
.(lp0
.(lp0
.(lp0
.(lp0
.(lp0
.(lp0
.(lp0
.(lp0
.(lp0
.(lp0
.(lp0
.(lp0
.(lp0
.(lp0
(lp1
S'saveWebContents'
p2
aS'519743'
p3
aa.(lp0
.(lp0
.(lp0
.(lp0
.(lp0
.(lp0
.(lp0
.(lp0
.(lp0
.(lp0
.(lp0
.(lp0
.(lp0
.(lp0
.(lp0
.(lp0
.(lp0
.(lp0
.(lp0
.(lp0
.(lp0
.(lp0
.(lp0
.(lp0
.(lp0
(lp1
S'saveWebContents'
p2
aS'003014'
p3
aa.(lp0
.(lp0
.(lp0
.(lp0
.(lp0
.(lp0
.(lp0
.(lp0
.(lp0
.(lp0
(lp1
S'saveWebContents'
p2
aS'001710'
p3
aa.(lp0
.(lp0
.(lp0
.(lp0
.(lp0
.(lp0
.(lp0
.(lp0
.(lp0
.(lp0
(lp1
S'saveWebContents'
p2
aS'002665'
p3
aa.(lp0
.(lp0
.(lp0
.(lp0
.(lp0
.(lp0
.(lp0
.(lp0
.(lp0
.(lp0
.(lp0
.(lp0
.(lp0
.(lp0
.(lp0
.(lp0
.(lp0
.(lp0
.(lp0
.(lp0
.(lp0
.(lp0
.(lp0
.(lp0
(lp1
S'saveWebContents'
p2
aS'002522'
p3
aa.(lp0
.(lp0
.(lp0
.(lp0
.(lp0
.(lp0
.(lp0
.(lp0
(lp1
S'saveWebContents'
p2
aS'001654'
p3
aa.(lp0
.(lp0
.(lp0
.(lp0
.(lp0
.(lp0
.(lp0
.(lp0
.(lp0
.(lp0
.(lp0
.(lp0
(lp1
S'saveWebContents'
p2
aS'519650'
p3
aa.(lp0
.(lp0
.(lp0
.(lp0
.(lp0
.(lp0
.(lp0
.(lp0
.(lp0
.(lp0
(lp1
S'saveWebContents'
p2
aS'003361'
p3
aa.(lp0
.(lp0
.(lp0
.(lp0
.(lp0
.(lp0
.(lp0
.(lp0
.(lp0
.(lp0
.(lp0
.(lp0
(lp1
S'saveWebContents'
p2
aS'001413'
p3
aa.(lp0
.(lp0
.(lp0
.(lp0
.(lp0
.(lp0
.(lp0
.(lp0
.(lp0
.(lp0
(lp1
S'saveWebContents'
p2
aS'310378'
p3
aa.(lp0
.(lp0
.(lp0
.(lp0
.(lp0
.(lp0
.(lp0
.(lp0
.(lp0
.(lp0
.(lp0
.(lp0
(lp1
S'saveWebContents'
p2
aS'003305'
p3
aa.(lp0
.(lp0
.(lp0
.(lp0
.(lp0
.(lp0
.(lp0
.(lp0
.(lp0
.(lp0
.(lp0
.(lp0
.(lp0
.(lp0
.(lp0
.(lp0
.(lp0
.(lp0
.(lp0
.(lp0
.(lp0
.(lp0
.(lp0
.(lp0
.(lp0
.(lp0
.(lp0
.(lp0
.(lp0
.(lp0
.(lp0
.(lp0
.(lp0
.(lp0
.(lp0
.(lp0
.(lp0
.(lp0
.(lp0
.(lp0
.(lp0
.(lp0
.(lp0
.(lp0
.(lp0
.(lp0
.(lp0
.(lp0
.(lp0
.(lp0
.(lp0
.(lp0
(lp1
S'saveWebContents'
p2
aS'686869'
p3
aa.(lp0
.(lp0
.(lp0
.(lp0
.(lp0
.(lp0
.(lp0
.(lp0
.(lp0
.(lp0
.(lp0
.(lp0
.(lp0
.(lp0
.(lp0
.(lp0
.(lp0
.(lp0
.(lp0
.(lp0
.(lp0
.(lp0
.(lp0
.(lp0
.(lp0
(lp1
S'saveWebContents'
p2
aS'002903'
p3
aa.(lp0
.(lp0
.(lp0
.(lp0
.(lp0
.(lp0
.(lp0
.(lp0
.(lp0
.(lp0
.(lp0
.(lp0
.(lp0
.(lp0
.(lp0
.(lp0
.(lp0
.(lp0
.(lp0
.(lp0
.(lp0
.(lp0
(lp1
S'saveWebContents'
p2
aS'003233'
p3
aa.(lp0
.(lp0
.(lp0
.(lp0
.(lp0
.(lp0
.(lp0
.(lp0
.(lp0
(lp1
S'saveWebContents'
p2
aS'003732'
p3
aa.(lp0
.(lp0
.(lp0
.(lp0
.(lp0
.(lp0
.(lp0
.(lp0
.(lp0
.(lp0
.(lp0
.(lp0
.(lp0
.(lp0
.(lp0
.(lp0
.(lp0
.(lp0
.(lp0
.(lp0
.(lp0
.(lp0
.(lp0
.(lp0
.(lp0
.(lp0
.(lp0
.(lp0
.(lp0
.(lp0
.(lp0
.(lp0
.(lp0
.(lp0
.(lp0
.(lp0
.(lp0
(lp1
S'saveWebContents'
p2
aS'002533'
p3
aa.(lp0
.(lp0
.(lp0
.(lp0
.(lp0
.(lp0
.(lp0
.(lp0
.(lp0
.(lp0
.(lp0
.(lp0
.(lp0
.(lp0
.(lp0
.(lp0
.(lp0
.(lp0
.(lp0
.(lp0
.(lp0
.(lp0
.(lp0
.(lp0
.(lp0
.(lp0
(lp1
S'saveWebContents'
p2
aS'003411'
p3
aa.(lp0
.(lp0
.(lp0
.(lp0
.(lp0
.(lp0
.(lp0
.(lp0
.(lp0
.(lp0
.(lp0
.(lp0
.(lp0
.(lp0
.(lp0
.(lp0
.(lp0
.(lp0
.(lp0
.(lp0
.(lp0
.(lp0
.(lp0
.(lp0
.(lp0
.(lp0
.(lp0
.(lp0
.(lp0
.(lp0
.(lp0
.(lp0
.(lp0
.(lp0
.(lp0
.(lp0
.(lp0
.(lp0
.(lp0
.(lp0
.(lp0
.(lp0
.(lp0
.(lp0
.(lp0
.(lp0
.(lp0
.(lp0
.(lp0
(lp1
S'saveWebContents'
p2
aS'003951'
p3
aa.(lp0
.(lp0
.(lp0
.(lp0
.(lp0
.(lp0
.(lp0
(lp1
S'saveWebContents'
p2
aS'002060'
p3
aa.(lp0
(lp1
S'saveWebContents'
p2
aS'003903'
p3
aa.(lp0
.(lp0
.(lp0
.(lp0
.(lp0
.(lp0
.(lp0
.(lp0
.(lp0
.(lp0
.(lp0
(lp1
S'saveWebContents'
p2
aS'000889'
p3
aa.(lp0
.(lp0
.(lp0
.(lp0
.(lp0
(lp1
S'saveWebContents'
p2
aS'004367'
p3
aa.(lp0
.(lp0
.(lp0
.(lp0
.(lp0
.(lp0
.(lp0
.(lp0
.(lp0
.(lp0
(lp1
S'saveWebContents'
p2
aS'003268'
p3
aa.(lp0
.(lp0
.(lp0
.(lp0
.(lp0
.(lp0
(lp1
S'saveWebContents'
p2
aS'002865'
p3
aa.(lp0
.(lp0
.(lp0
.(lp0
.(lp0
.(lp0
.(lp0
.(lp0
.(lp0
.(lp0
.(lp0
.(lp0
.(lp0
.(lp0
.(lp0
.(lp0
.(lp0
.(lp0
.(lp0
.(lp0
.(lp0
.(lp0
(lp1
S'saveWebContents'
p2
aS'002833'
p3
aa.(lp0
.(lp0
.(lp0
.(lp0
.(lp0
.(lp0
.(lp0
.(lp0
.(lp0
.(lp0
.(lp0
.(lp0
.(lp0
.(lp0
.(lp0
.(lp0
.(lp0
.(lp0
.(lp0
.(lp0
.(lp0
.(lp0
.(lp0
.(lp0
.(lp0
.(lp0
.(lp0
.(lp0
.(lp0
.(lp0
.(lp0
.(lp0
.(lp0
.(lp0
.(lp0
.(lp0
.(lp0
.(lp0
.(lp0
.(lp0
.(lp0
.(lp0
.(lp0
.(lp0
.(lp0
.(lp0
.(lp0
.(lp0
.(lp0
.(lp0
.(lp0
.(lp0
.(lp0
.(lp0
.(lp0
.(lp0
.(lp0
.(lp0
.(lp0
.(lp0
.(lp0
.(lp0
.(lp0
.(lp0
.(lp0
.(lp0
.(lp0
.(lp0
.(lp0
.(lp0
.(lp0
.(lp0
.(lp0
.(lp0
.(lp0
(lp1
S'saveWebContents'
p2
aS'519775'
p3
aa.(lp0
(lp1
S'saveWebContents'
p2
aS'003040'
p3
aa.(lp0
.(lp0
.(lp0
.(lp0
.(lp0
.(lp0
.(lp0
.(lp0
(lp1
S'saveWebContents'
p2
aS'003929'
p3
aa.(lp0
.(lp0
.(lp0
.(lp0
.(lp0
.(lp0
.(lp0
.(lp0
.(lp0
.(lp0
.(lp0
.(lp0
(lp1
S'saveWebContents'
p2
aS'675083'
p3
aa.(lp0
.(lp0
.(lp0
.(lp0
.(lp0
.(lp0
.(lp0
.(lp0
.(lp0
.(lp0
.(lp0
.(lp0
.(lp0
.(lp0
(lp1
S'saveWebContents'
p2
aS'001661'
p3
aa.(lp0
.(lp0
(lp1
S'saveWebContents'
p2
aS'002054'
p3
aa.(lp0
.(lp0
.(lp0
.(lp0
.(lp0
.(lp0
.(lp0
.(lp0
.(lp0
.(lp0
.(lp0
.(lp0
.(lp0
.(lp0
.(lp0
.(lp0
.(lp0
.(lp0
.(lp0
.(lp0
.(lp0
.(lp0
.(lp0
.(lp0
.(lp0
.(lp0
.(lp0
.(lp0
.(lp0
.(lp0
.(lp0
.(lp0
.(lp0
.(lp0
.(lp0
.(lp0
.(lp0
.(lp0
.(lp0
.(lp0
.(lp0
.(lp0
.(lp0
.(lp0
.(lp0
.(lp0
.(lp0
.(lp0
.(lp0
.(lp0
.(lp0
.(lp0
.(lp0
.(lp0
.(lp0
.(lp0
.(lp0
.(lp0
.(lp0
.(lp0
.(lp0
.(lp0
.(lp0
.(lp0
.(lp0
.(lp0
.(lp0
.(lp0
.(lp0
.(lp0
.(lp0
.(lp0
.(lp0
.(lp0
(lp1
S'saveWebContents'
p2
aS'003118'
p3
aa.(lp0
.(lp0
.(lp0
.(lp0
.(lp0
.(lp0
.(lp0
.(lp0
.(lp0
.(lp0
.(lp0
.(lp0
.(lp0
.(lp0
.(lp0
.(lp0
.(lp0
.(lp0
.(lp0
.(lp0
.(lp0
.(lp0
.(lp0
.(lp0
(lp1
S'saveWebContents'
p2
aS'003895'
p3
aa.(lp0
.(lp0
.(lp0
.(lp0
.(lp0
.(lp0
.(lp0
.(lp0
.(lp0
.(lp0
.(lp0
(lp1
S'saveWebContents'
p2
aS'003337'
p3
aa.(lp0
.(lp0
.(lp0
.(lp0
.(lp0
.(lp0
.(lp0
.(lp0
.(lp0
.(lp0
.(lp0
.(lp0
.(lp0
.(lp0
.(lp0
.(lp0
.(lp0
.(lp0
.(lp0
.(lp0
.(lp0
.(lp0
.(lp0
.(lp0
.(lp0
.(lp0
.(lp0
.(lp0
.(lp0
.(lp0
.(lp0
.(lp0
.(lp0
.(lp0
(lp1
S'saveWebContents'
p2
aS'004637'
p3
aa.(lp0
(lp1
S'parserWebContents'
p2
aS'005919'
p3
aa.(lp0
.(lp0
.(lp0
.(lp0
.(lp0
.(lp0
.(lp0
(lp1
S'saveWebContents'
p2
aS'000257'
p3
aa.(lp0
.(lp0
.(lp0
.(lp0
.(lp0
.(lp0
.(lp0
.(lp0
.(lp0
.(lp0
.(lp0
.(lp0
.(lp0
.(lp0
.(lp0
.(lp0
.(lp0
.(lp0
.(lp0
.(lp0
.(lp0
.(lp0
.(lp0
.(lp0
.(lp0
.(lp0
.(lp0
.(lp0
.(lp0
.(lp0
.(lp0
.(lp0
.(lp0
.(lp0
.(lp0
.(lp0
.(lp0
.(lp0
.(lp0
(lp1
S'saveWebContents'
p2
aS'001872'
p3
aa.(lp0
.(lp0
.(lp0
.(lp0
.(lp0
.(lp0
.(lp0
.(lp0
.(lp0
.(lp0
.(lp0
.(lp0
.(lp0
.(lp0
.(lp0
.(lp0
.(lp0
.(lp0
.(lp0
.(lp0
.(lp0
.(lp0
.(lp0
.(lp0
.(lp0
.(lp0
.(lp0
.(lp0
.(lp0
.(lp0
.(lp0
.(lp0
.(lp0
.(lp0
.(lp0
.(lp0
.(lp0
.(lp0
.(lp0
(lp1
S'saveWebContents'
p2
aS'320022'
p3
aa.(lp0
.(lp0
.(lp0
.(lp0
.(lp0
.(lp0
.(lp0
.(lp0
.(lp0
.(lp0
.(lp0
.(lp0
.(lp0
.(lp0
.(lp0
.(lp0
.(lp0
.(lp0
.(lp0
(lp1
S'saveWebContents'
p2
aS'003927'
p3
aa.(lp0
.(lp0
.(lp0
.(lp0
.(lp0
.(lp0
.(lp0
(lp1
S'parserWebContents'
p2
aS'005918'
p3
aa.(lp0
.(lp0
.(lp0
.(lp0
.(lp0
.(lp0
.(lp0
.(lp0
.(lp0
.(lp0
.(lp0
.(lp0
.(lp0
.(lp0
.(lp0
.(lp0
.(lp0
.(lp0
.(lp0
.(lp0
.(lp0
.(lp0
.(lp0
.(lp0
.(lp0
.(lp0
.(lp0
.(lp0
.(lp0
.(lp0
.(lp0
.(lp0
.(lp0
.(lp0
.(lp0
.(lp0
.(lp0
.(lp0
.(lp0
.(lp0
.(lp0
.(lp0
.(lp0
.(lp0
.(lp0
.(lp0
.(lp0
.(lp0
.(lp0
.(lp0
.(lp0
.(lp0
.(lp0
.(lp0
.(lp0
.(lp0
.(lp0
.(lp0
.(lp0
.(lp0
.(lp0
.(lp0
.(lp0
.(lp0
.(lp0
.(lp0
.(lp0
.(lp0
.(lp0
.(lp0
.(lp0
.(lp0
.(lp0
.(lp0
.(lp0
.(lp0
.(lp0
.(lp0
.(lp0
.(lp0
.(lp0
.(lp0
.(lp0
.(lp0
.(lp0
.(lp0
.(lp0
.(lp0
.(lp0
.(lp0
.(lp0
.(lp0
.(lp0
.(lp0
.(lp0
.(lp0
.(lp0
.(lp0
.(lp0
.(lp0
.(lp0
.(lp0
.(lp0
.(lp0
.(lp0
.(lp0
.(lp0
.(lp0
.(lp0
.(lp0
.(lp0
.(lp0
.(lp0
.(lp0
.(lp0
.(lp0
.(lp0
.(lp0
.(lp0
.(lp0
.(lp0
.(lp0
.(lp0
.(lp0
.(lp0
.(lp0
.(lp0
.(lp0
.(lp0
.(lp0
.(lp0
.(lp0
.(lp0
.(lp0
(lp1
S'saveWebContents'
p2
aS'675093'
p3
aa.(lp0
.(lp0
.(lp0
.(lp0
.(lp0
.(lp0
.(lp0
.(lp0
.(lp0
.(lp0
.(lp0
.(lp0
.(lp0
.(lp0
.(lp0
.(lp0
.(lp0
.(lp0
.(lp0
.(lp0
.(lp0
(lp1
S'saveWebContents'
p2
aS'004728'
p3
aa.(lp0
.(lp0
.(lp0
.(lp0
.(lp0
(lp1
S'saveWebContents'
p2
aS'003141'
p3
aa.(lp0
.(lp0
.(lp0
.(lp0
.(lp0
.(lp0
.(lp0
.(lp0
.(lp0
.(lp0
.(lp0
.(lp0
.(lp0
.(lp0
.(lp0
.(lp0
.(lp0
.(lp0
.(lp0
.(lp0
.(lp0
.(lp0
.(lp0
.(lp0
.(lp0
.(lp0
.(lp0
.(lp0
.(lp0
.(lp0
.(lp0
.(lp0
.(lp0
.(lp0
.(lp0
.(lp0
.(lp0
.(lp0
(lp1
S'saveWebContents'
p2
aS'580009'
p3
aa.(lp0
.(lp0
.(lp0
.(lp0
.(lp0
.(lp0
.(lp0
.(lp0
.(lp0
.(lp0
.(lp0
.(lp0
.(lp0
.(lp0
.(lp0
.(lp0
.(lp0
.(lp0
.(lp0
.(lp0
.(lp0
.(lp0
.(lp0
.(lp0
.(lp0
.(lp0
.(lp0
.(lp0
.(lp0
.(lp0
.(lp0
.(lp0
.(lp0
.(lp0
.(lp0
.(lp0
.(lp0
.(lp0
.(lp0
.(lp0
.(lp0
.(lp0
.(lp0
.(lp0
.(lp0
.(lp0
.(lp0
.(lp0
.(lp0
.(lp0
.(lp0
.(lp0
.(lp0
.(lp0
.(lp0
.(lp0
.(lp0
.(lp0
(lp1
S'saveWebContents'
p2
aS'003787'
p3
aa.(lp0
.(lp0
.(lp0
.(lp0
.(lp0
.(lp0
.(lp0
.(lp0
.(lp0
.(lp0
.(lp0
.(lp0
.(lp0
.(lp0
.(lp0
.(lp0
.(lp0
.(lp0
.(lp0
.(lp0
.(lp0
.(lp0
.(lp0
.(lp0
.(lp0
.(lp0
.(lp0
.(lp0
.(lp0
.(lp0
.(lp0
.(lp0
.(lp0
.(lp0
.(lp0
.(lp0
.(lp0
.(lp0
.(lp0
.(lp0
.(lp0
.(lp0
.(lp0
.(lp0
.(lp0
.(lp0
.(lp0
.(lp0
.(lp0
.(lp0
.(lp0
.(lp0
.(lp0
.(lp0
.(lp0
.(lp0
.(lp0
.(lp0
.(lp0
.(lp0
.(lp0
.(lp0
.(lp0
.(lp0
.(lp0
.(lp0
.(lp0
.(lp0
.(lp0
.(lp0
.(lp0
.(lp0
.(lp0
.(lp0
.(lp0
.(lp0
.(lp0
.(lp0
.(lp0
.(lp0
.(lp0
.(lp0
.(lp0
.(lp0
.(lp0
.(lp0
.(lp0
.(lp0
.(lp0
.(lp0
.(lp0
.(lp0
.(lp0
.(lp0
.(lp0
.(lp0
.(lp0
.(lp0
.(lp0
.(lp0
.(lp0
.(lp0
.(lp0
.(lp0
.(lp0
.(lp0
.(lp0
.(lp0
.(lp0
.(lp0
.(lp0
.(lp0
.(lp0
.(lp0
.(lp0
.(lp0
.(lp0
.(lp0
.(lp0
.(lp0
.(lp0
.(lp0
.(lp0
.(lp0
.(lp0
.(lp0
.(lp0
.(lp0
.(lp0
(lp1
S'parserWebContents'
p2
aS'005673'
p3
aa.(lp0
(lp1
S'parserWebContents'
p2
aS'005997'
p3
aa.(lp0
.(lp0
.(lp0
.(lp0
.(lp0
.(lp0
.(lp0
.(lp0
.(lp0
(lp1
S'parserWebContents'
p2
aS'164825'
p3
aa.(lp0
.(lp0
.(lp0
.(lp0
.(lp0
.(lp0
.(lp0
.(lp0
.(lp0
.(lp0
.(lp0
.(lp0
.(lp0
.(lp0
.(lp0
.(lp0
.(lp0
.(lp0
.(lp0
.(lp0
.(lp0
.(lp0
.(lp0
.(lp0
.(lp0
.(lp0
.(lp0
.(lp0
.(lp0
.(lp0
.(lp0
.(lp0
.(lp0
.(lp0
.(lp0
.(lp0
.(lp0
.(lp0
(lp1
S'saveWebContents'
p2
aS'001328'
p3
aa.(lp0
.(lp0
.(lp0
.(lp0
.(lp0
.(lp0
.(lp0
.(lp0
.(lp0
.(lp0
.(lp0
.(lp0
.(lp0
.(lp0
.(lp0
.(lp0
.(lp0
.(lp0
.(lp0
.(lp0
.(lp0
.(lp0
.(lp0
.(lp0
.(lp0
.(lp0
.(lp0
.(lp0
.(lp0
.(lp0
.(lp0
.(lp0
.(lp0
.(lp0
.(lp0
.(lp0
(lp1
S'saveWebContents'
p2
aS'003205'
p3
aa.(lp0
.(lp0
.(lp0
.(lp0
.(lp0
.(lp0
.(lp0
.(lp0
.(lp0
.(lp0
.(lp0
.(lp0
.(lp0
.(lp0
.(lp0
.(lp0
.(lp0
.(lp0
.(lp0
.(lp0
.(lp0
.(lp0
.(lp0
.(lp0
.(lp0
.(lp0
.(lp0
.(lp0
(lp1
S'saveWebContents'
p2
aS'003204'
p3
aa.(lp0
.(lp0
.(lp0
.(lp0
.(lp0
.(lp0
.(lp0
.(lp0
.(lp0
.(lp0
.(lp0
.(lp0
.(lp0
.(lp0
.(lp0
.(lp0
.(lp0
.(lp0
.(lp0
.(lp0
.(lp0
.(lp0
.(lp0
.(lp0
.(lp0
.(lp0
.(lp0
.(lp0
.(lp0
.(lp0
.(lp0
.(lp0
.(lp0
.(lp0
.(lp0
.(lp0
.(lp0
.(lp0
.(lp0
.(lp0
.(lp0
.(lp0
.(lp0
.(lp0
.(lp0
.(lp0
.(lp0
.(lp0
.(lp0
.(lp0
.(lp0
.(lp0
.(lp0
.(lp0
.(lp0
.(lp0
.(lp0
.(lp0
.(lp0
.(lp0
.(lp0
.(lp0
.(lp0
.(lp0
.(lp0
.(lp0
.(lp0
.(lp0
.(lp0
.(lp0
.(lp0
.(lp0
.(lp0
.(lp0
.(lp0
.(lp0
.(lp0
.(lp0
.(lp0
.(lp0
.(lp0
.(lp0
.(lp0
.(lp0
.(lp0
.(lp0
.(lp0
.(lp0
.(lp0
.(lp0
.(lp0
.(lp0
.(lp0
.(lp0
.(lp0
.(lp0
.(lp0
.(lp0
.(lp0
.(lp0
(lp1
S'saveWebContents'
p2
aS'002794'
p3
aa.(lp0
.(lp0
.(lp0
.(lp0
.(lp0
.(lp0
.(lp0
.(lp0
.(lp0
.(lp0
.(lp0
.(lp0
.(lp0
.(lp0
.(lp0
.(lp0
.(lp0
.(lp0
.(lp0
.(lp0
.(lp0
.(lp0
.(lp0
.(lp0
.(lp0
.(lp0
.(lp0
.(lp0
.(lp0
.(lp0
.(lp0
.(lp0
.(lp0
.(lp0
.(lp0
.(lp0
.(lp0
.(lp0
.(lp0
.(lp0
.(lp0
.(lp0
.(lp0
.(lp0
.(lp0
.(lp0
(lp1
S'saveWebContents'
p2
aS'160523'
p3
aa.(lp0
.(lp0
.(lp0
.(lp0
.(lp0
.(lp0
.(lp0
(lp1
S'parserWebContents'
p2
aS'005795'
p3
aa.(lp0
.(lp0
.(lp0
.(lp0
.(lp0
.(lp0
.(lp0
(lp1
S'saveWebContents'
p2
aS'001284'
p3
aa.(lp0
.(lp0
.(lp0
.(lp0
.(lp0
.(lp0
.(lp0
.(lp0
.(lp0
.(lp0
.(lp0
.(lp0
.(lp0
.(lp0
(lp1
S'saveWebContents'
p2
aS'001602'
p3
aa.(lp0
.(lp0
.(lp0
.(lp0
.(lp0
.(lp0
.(lp0
.(lp0
.(lp0
.(lp0
.(lp0
.(lp0
.(lp0
.(lp0
.(lp0
.(lp0
.(lp0
.(lp0
.(lp0
.(lp0
.(lp0
.(lp0
.(lp0
.(lp0
.(lp0
.(lp0
.(lp0
.(lp0
.(lp0
.(lp0
.(lp0
.(lp0
.(lp0
.(lp0
.(lp0
.(lp0
.(lp0
.(lp0
(lp1
S'saveWebContents'
p2
aS'002365'
p3
aa.(lp0
.(lp0
.(lp0
.(lp0
.(lp0
.(lp0
.(lp0
.(lp0
(lp1
S'saveWebContents'
p2
aS'020036'
p3
aa.(lp0
.(lp0
.(lp0
.(lp0
.(lp0
.(lp0
.(lp0
.(lp0
.(lp0
.(lp0
.(lp0
.(lp0
.(lp0
.(lp0
.(lp0
.(lp0
.(lp0
.(lp0
.(lp0
.(lp0
.(lp0
.(lp0
.(lp0
.(lp0
.(lp0
.(lp0
.(lp0
.(lp0
.(lp0
.(lp0
.(lp0
.(lp0
.(lp0
.(lp0
.(lp0
.(lp0
.(lp0
.(lp0
.(lp0
.(lp0
.(lp0
.(lp0
.(lp0
.(lp0
.(lp0
.(lp0
.(lp0
.(lp0
.(lp0
.(lp0
.(lp0
.(lp0
.(lp0
.(lp0
.(lp0
.(lp0
.(lp0
.(lp0
.(lp0
.(lp0
.(lp0
.(lp0
.(lp0
.(lp0
.(lp0
.(lp0
.(lp0
.(lp0
.(lp0
.(lp0
.(lp0
.(lp0
.(lp0
.(lp0
.(lp0
.(lp0
.(lp0
.(lp0
.(lp0
.(lp0
.(lp0
.(lp0
.(lp0
.(lp0
(lp1
S'saveWebContents'
p2
aS'002207'
p3
aa.(lp0
.(lp0
.(lp0
.(lp0
.(lp0
.(lp0
.(lp0
.(lp0
.(lp0
.(lp0
.(lp0
.(lp0
.(lp0
.(lp0
.(lp0
.(lp0
.(lp0
.(lp0
.(lp0
.(lp0
.(lp0
.(lp0
.(lp0
.(lp0
.(lp0
.(lp0
.(lp0
.(lp0
.(lp0
.(lp0
.(lp0
.(lp0
.(lp0
.(lp0
.(lp0
.(lp0
.(lp0
.(lp0
.(lp0
.(lp0
.(lp0
.(lp0
.(lp0
.(lp0
.(lp0
.(lp0
.(lp0
.(lp0
.(lp0
.(lp0
.(lp0
.(lp0
.(lp0
.(lp0
.(lp0
.(lp0
.(lp0
.(lp0
.(lp0
.(lp0
.(lp0
.(lp0
.(lp0
.(lp0
.(lp0
.(lp0
.(lp0
.(lp0
.(lp0
.(lp0
.(lp0
.(lp0
.(lp0
.(lp0
.(lp0
.(lp0
.(lp0
.(lp0
.(lp0
.(lp0
.(lp0
.(lp0
.(lp0
.(lp0
.(lp0
.(lp0
.(lp0
.(lp0
.(lp0
.(lp0
.(lp0
.(lp0
.(lp0
.(lp0
.(lp0
.(lp0
.(lp0
.(lp0
.(lp0
.(lp0
.(lp0
.(lp0
.(lp0
.(lp0
.(lp0
.(lp0
.(lp0
.(lp0
.(lp0
.(lp0
.(lp0
.(lp0
.(lp0
.(lp0
.(lp0
.(lp0
.(lp0
.(lp0
.(lp0
.(lp0
.(lp0
.(lp0
.(lp0
.(lp0
.(lp0
.(lp0
.(lp0
.(lp0
.(lp0
.(lp0
.(lp0
.(lp0
.(lp0
.(lp0
.(lp0
.(lp0
.(lp0
.(lp0
(lp1
S'saveWebContents'
p2
aS'519634'
p3
aa.(lp0
.(lp0
.(lp0
.(lp0
.(lp0
.(lp0
.(lp0
.(lp0
.(lp0
.(lp0
.(lp0
.(lp0
.(lp0
.(lp0
.(lp0
.(lp0
.(lp0
.(lp0
.(lp0
.(lp0
.(lp0
.(lp0
.(lp0
.(lp0
.(lp0
.(lp0
.(lp0
.(lp0
.(lp0
(lp1
S'saveWebContents'
p2
aS'004676'
p3
aa.(lp0
.(lp0
.(lp0
.(lp0
.(lp0
.(lp0
.(lp0
.(lp0
.(lp0
(lp1
S'saveWebContents'
p2
aS'002555'
p3
aa.(lp0
.(lp0
.(lp0
.(lp0
.(lp0
.(lp0
.(lp0
.(lp0
.(lp0
.(lp0
.(lp0
.(lp0
.(lp0
.(lp0
.(lp0
.(lp0
.(lp0
.(lp0
.(lp0
.(lp0
.(lp0
.(lp0
.(lp0
.(lp0
.(lp0
.(lp0
.(lp0
.(lp0
(lp1
S'saveWebContents'
p2
aS'002196'
p3
aa.(lp0
.(lp0
.(lp0
.(lp0
.(lp0
.(lp0
.(lp0
.(lp0
.(lp0
.(lp0
.(lp0
.(lp0
.(lp0
.(lp0
.(lp0
.(lp0
.(lp0
.(lp0
.(lp0
.(lp0
.(lp0
.(lp0
.(lp0
.(lp0
.(lp0
.(lp0
.(lp0
.(lp0
.(lp0
.(lp0
.(lp0
.(lp0
.(lp0
.(lp0
.(lp0
.(lp0
.(lp0
.(lp0
.(lp0
.(lp0
.(lp0
.(lp0
.(lp0
.(lp0
.(lp0
.(lp0
.(lp0
.(lp0
.(lp0
.(lp0
.(lp0
.(lp0
.(lp0
.(lp0
.(lp0
.(lp0
.(lp0
.(lp0
.(lp0
.(lp0
.(lp0
.(lp0
.(lp0
.(lp0
.(lp0
.(lp0
.(lp0
.(lp0
.(lp0
.(lp0
.(lp0
.(lp0
.(lp0
.(lp0
.(lp0
.(lp0
.(lp0
.(lp0
.(lp0
.(lp0
.(lp0
.(lp0
.(lp0
.(lp0
.(lp0
.(lp0
.(lp0
.(lp0
.(lp0
.(lp0
.(lp0
.(lp0
.(lp0
.(lp0
.(lp0
.(lp0
.(lp0
.(lp0
.(lp0
.(lp0
.(lp0
.(lp0
.(lp0
.(lp0
.(lp0
.(lp0
.(lp0
.(lp0
.(lp0
.(lp0
.(lp0
.(lp0
.(lp0
.(lp0
.(lp0
.(lp0
.(lp0
.(lp0
.(lp0
.(lp0
.(lp0
.(lp0
.(lp0
.(lp0
.(lp0
.(lp0
.(lp0
.(lp0
.(lp0
.(lp0
.(lp0
.(lp0
.(lp0
.(lp0
.(lp0
.(lp0
.(lp0
.(lp0
.(lp0
.(lp0
.(lp0
.(lp0
.(lp0
.(lp0
.(lp0
(lp1
S'parserWebContents'
p2
aS'005867'
p3
aa.(lp0
.(lp0
.(lp0
.(lp0
.(lp0
.(lp0
.(lp0
.(lp0
.(lp0
.(lp0
.(lp0
.(lp0
.(lp0
.(lp0
.(lp0
.(lp0
.(lp0
.(lp0
.(lp0
.(lp0
.(lp0
.(lp0
.(lp0
.(lp0
.(lp0
.(lp0
.(lp0
.(lp0
.(lp0
.(lp0
.(lp0
.(lp0
.(lp0
.(lp0
.(lp0
.(lp0
.(lp0
.(lp0
.(lp0
.(lp0
.(lp0
.(lp0
.(lp0
.(lp0
.(lp0
.(lp0
.(lp0
.(lp0
.(lp0
.(lp0
.(lp0
.(lp0
.(lp0
.(lp0
.(lp0
.(lp0
.(lp0
.(lp0
.(lp0
.(lp0
.(lp0
.(lp0
.(lp0
.(lp0
.(lp0
.(lp0
.(lp0
.(lp0
.(lp0
.(lp0
.(lp0
.(lp0
.(lp0
.(lp0
.(lp0
.(lp0
.(lp0
.(lp0
.(lp0
.(lp0
.(lp0
.(lp0
.(lp0
.(lp0
.(lp0
.(lp0
.(lp0
.(lp0
.(lp0
.(lp0
.(lp0
.(lp0
.(lp0
.(lp0
.(lp0
.(lp0
.(lp0
.(lp0
.(lp0
.(lp0
.(lp0
.(lp0
.(lp0
.(lp0
.(lp0
.(lp0
.(lp0
.(lp0
.(lp0
.(lp0
.(lp0
.(lp0
(lp1
S'saveWebContents'
p2
aS'000986'
p3
aa.(lp0
.(lp0
.(lp0
.(lp0
.(lp0
.(lp0
.(lp0
.(lp0
.(lp0
.(lp0
.(lp0
.(lp0
.(lp0
.(lp0
.(lp0
.(lp0
.(lp0
.(lp0
.(lp0
.(lp0
.(lp0
.(lp0
.(lp0
.(lp0
.(lp0
.(lp0
.(lp0
.(lp0
.(lp0
.(lp0
.(lp0
.(lp0
.(lp0
.(lp0
.(lp0
.(lp0
.(lp0
.(lp0
.(lp0
.(lp0
.(lp0
.(lp0
.(lp0
.(lp0
.(lp0
.(lp0
.(lp0
.(lp0
.(lp0
.(lp0
.(lp0
.(lp0
.(lp0
.(lp0
.(lp0
.(lp0
.(lp0
.(lp0
.(lp0
.(lp0
.(lp0
.(lp0
.(lp0
.(lp0
.(lp0
.(lp0
.(lp0
.(lp0
.(lp0
.(lp0
.(lp0
.(lp0
.(lp0
.(lp0
.(lp0
.(lp0
.(lp0
.(lp0
.(lp0
.(lp0
.(lp0
.(lp0
.(lp0
.(lp0
.(lp0
.(lp0
.(lp0
.(lp0
.(lp0
.(lp0
.(lp0
.(lp0
.(lp0
.(lp0
.(lp0
.(lp0
.(lp0
.(lp0
.(lp0
.(lp0
.(lp0
.(lp0
.(lp0
.(lp0
.(lp0
.(lp0
.(lp0
.(lp0
.(lp0
.(lp0
.(lp0
.(lp0
.(lp0
.(lp0
.(lp0
.(lp0
.(lp0
.(lp0
.(lp0
.(lp0
.(lp0
.(lp0
.(lp0
.(lp0
.(lp0
.(lp0
.(lp0
.(lp0
.(lp0
.(lp0
.(lp0
.(lp0
.(lp0
.(lp0
.(lp0
.(lp0
.(lp0
.(lp0
.(lp0
.(lp0
.(lp0
.(lp0
.(lp0
.(lp0
.(lp0
.(lp0
.(lp0
.(lp0
.(lp0
.(lp0
.(lp0
.(lp0
.(lp0
.(lp0
.(lp0
.(lp0
.(lp0
.(lp0
.(lp0
.(lp0
.(lp0
.(lp0
.(lp0
.(lp0
.(lp0
.(lp0
.(lp0
.(lp0
.(lp0
.(lp0
.(lp0
.(lp0
.(lp0
.(lp0
.(lp0
.(lp0
.(lp0
.(lp0
.(lp0
.(lp0
.(lp0
.(lp0
.(lp0
.(lp0
.(lp0
.(lp0
.(lp0
.(lp0
.(lp0
.(lp0
.(lp0
.(lp0
.(lp0
.(lp0
.(lp0
.(lp0
.(lp0
.(lp0
.(lp0
.(lp0
.(lp0
.(lp0
.(lp0
.(lp0
.(lp0
.(lp0
.(lp0
.(lp0
.(lp0
.(lp0
.(lp0
.(lp0
.(lp0
.(lp0
.(lp0
.(lp0
.(lp0
.(lp0
.(lp0
.(lp0
.(lp0
.(lp0
.(lp0
.(lp0
.(lp0
.(lp0
.(lp0
.(lp0
.(lp0
.(lp0
.(lp0
.(lp0
.(lp0
.(lp0
.(lp0
.(lp0
.(lp0
.(lp0
.(lp0
.(lp0
.(lp0
.(lp0
.(lp0
.(lp0
.(lp0
.(lp0
.(lp0
.(lp0
.(lp0
.(lp0
.(lp0
.(lp0
.(lp0
(lp1
S'saveWebContents'
p2
aS'001890'
p3
aa.(lp0
.(lp0
.(lp0
.(lp0
.(lp0
.(lp0
.(lp0
.(lp0
.(lp0
.(lp0
.(lp0
.(lp0
.(lp0
.(lp0
.(lp0
.(lp0
.(lp0
.(lp0
.(lp0
.(lp0
.(lp0
.(lp0
.(lp0
.(lp0
.(lp0
.(lp0
.(lp0
.(lp0
.(lp0
.(lp0
.(lp0
.(lp0
.(lp0
.(lp0
.(lp0
(lp1
S'saveWebContents'
p2
aS'001585'
p3
aa.(lp0
(lp1
S'saveWebContents'
p2
aS'001584'
p3
aa.(lp0
.(lp0
.(lp0
.(lp0
.(lp0
.(lp0
.(lp0
.(lp0
.(lp0
.(lp0
.(lp0
.(lp0
.(lp0
(lp1
S'parserWebContents'
p2
aS'002344'
p3
aa.(lp0
.(lp0
.(lp0
.(lp0
.(lp0
.(lp0
.(lp0
.(lp0
.(lp0
.(lp0
.(lp0
.(lp0
(lp1
S'saveWebContents'
p2
aS'001934'
p3
aa.(lp0
.(lp0
.(lp0
.(lp0
.(lp0
.(lp0
.(lp0
.(lp0
.(lp0
.(lp0
.(lp0
.(lp0
.(lp0
.(lp0
.(lp0
.(lp0
.(lp0
.(lp0
.(lp0
.(lp0
.(lp0
.(lp0
.(lp0
.(lp0
.(lp0
.(lp0
.(lp0
.(lp0
.(lp0
.(lp0
.(lp0
.(lp0
.(lp0
.(lp0
.(lp0
.(lp0
.(lp0
.(lp0
.(lp0
.(lp0
.(lp0
.(lp0
.(lp0
.(lp0
.(lp0
.(lp0
.(lp0
.(lp0
.(lp0
.(lp0
.(lp0
.(lp0
.(lp0
.(lp0
.(lp0
.(lp0
.(lp0
.(lp0
.(lp0
.(lp0
.(lp0
.(lp0
.(lp0
.(lp0
.(lp0
.(lp0
.(lp0
.(lp0
.(lp0
.(lp0
.(lp0
.(lp0
.(lp0
.(lp0
.(lp0
.(lp0
.(lp0
.(lp0
.(lp0
.(lp0
.(lp0
.(lp0
.(lp0
.(lp0
.(lp0
(lp1
S'parserWebContents'
p2
aS'001774'
p3
aa.(lp0
.(lp0
.(lp0
.(lp0
(lp1
S'saveWebContents'
p2
aS'002716'
p3
aa.(lp0
.(lp0
.(lp0
.(lp0
.(lp0
.(lp0
.(lp0
.(lp0
.(lp0
.(lp0
.(lp0
.(lp0
.(lp0
.(lp0
.(lp0
.(lp0
.(lp0
.(lp0
.(lp0
.(lp0
.(lp0
.(lp0
.(lp0
.(lp0
.(lp0
.(lp0
.(lp0
.(lp0
.(lp0
.(lp0
.(lp0
.(lp0
.(lp0
.(lp0
.(lp0
.(lp0
.(lp0
.(lp0
.(lp0
.(lp0
.(lp0
.(lp0
.(lp0
.(lp0
.(lp0
.(lp0
.(lp0
.(lp0
.(lp0
(lp1
S'parserWebContents'
p2
aS'003699'
p3
aa.(lp0
.(lp0
.(lp0
.(lp0
.(lp0
.(lp0
.(lp0
.(lp0
.(lp0
.(lp0
.(lp0
(lp1
S'parserWebContents'
p2
aS'003443'
p3
aa.(lp0
.(lp0
.(lp0
.(lp0
.(lp0
.(lp0
.(lp0
.(lp0
.(lp0
.(lp0
.(lp0
.(lp0
.(lp0
.(lp0
.(lp0
.(lp0
(lp1
S'saveWebContents'
p2
aS'003322'
p3
aa.(lp0
.(lp0
.(lp0
.(lp0
.(lp0
(lp1
S'saveWebContents'
p2
aS'003323'
p3
aa.(lp0
.(lp0
.(lp0
.(lp0
(lp1
S'parserWebContents'
p2
aS'003570'
p3
aa.(lp0
.(lp0
.(lp0
.(lp0
.(lp0
(lp1
S'parserWebContents'
p2
aS'003577'
p3
aa.(lp0
.(lp0
.(lp0
.(lp0
.(lp0
.(lp0
.(lp0
.(lp0
.(lp0
.(lp0
(lp1
S'parserWebContents'
p2
aS'003572'
p3
aa.(lp0
(lp1
S'parserWebContents'
p2
aS'004095'
p3
aa.(lp0
.(lp0
.(lp0
.(lp0
.(lp0
.(lp0
.(lp0
.(lp0
.(lp0
.(lp0
.(lp0
.(lp0
.(lp0
.(lp0
.(lp0
.(lp0
(lp1
S'saveWebContents'
p2
aS'003526'
p3
aa.(lp0
.(lp0
.(lp0
.(lp0
.(lp0
.(lp0
.(lp0
.(lp0
.(lp0
.(lp0
.(lp0
.(lp0
.(lp0
.(lp0
.(lp0
.(lp0
.(lp0
.(lp0
.(lp0
.(lp0
(lp1
S'parserWebContents'
p2
aS'003449'
p3
aa.(lp0
.(lp0
.(lp0
.(lp0
.(lp0
.(lp0
.(lp0
.(lp0
.(lp0
.(lp0
.(lp0
.(lp0
.(lp0
.(lp0
.(lp0
.(lp0
.(lp0
.(lp0
.(lp0
.(lp0
.(lp0
.(lp0
.(lp0
.(lp0
.(lp0
.(lp0
.(lp0
.(lp0
.(lp0
.(lp0
.(lp0
.(lp0
.(lp0
.(lp0
.(lp0
.(lp0
.(lp0
.(lp0
.(lp0
.(lp0
.(lp0
.(lp0
.(lp0
.(lp0
.(lp0
.(lp0
.(lp0
.(lp0
.(lp0
.(lp0
.(lp0
.(lp0
.(lp0
.(lp0
.(lp0
.(lp0
.(lp0
.(lp0
.(lp0
.(lp0
.(lp0
.(lp0
.(lp0
.(lp0
.(lp0
.(lp0
.(lp0
.(lp0
.(lp0
.(lp0
(lp1
S'parserWebContents'
p2
aS'003441'
p3
aa.(lp0
.(lp0
.(lp0
.(lp0
.(lp0
.(lp0
.(lp0
.(lp0
.(lp0
.(lp0
.(lp0
.(lp0
.(lp0
.(lp0
.(lp0
.(lp0
.(lp0
(lp1
S'parserWebContents'
p2
aS'003451'
p3
aa.(lp0
.(lp0
.(lp0
.(lp0
.(lp0
.(lp0
.(lp0
.(lp0
.(lp0
.(lp0
.(lp0
.(lp0
.(lp0
.(lp0
.(lp0
(lp1
S'parserWebContents'
p2
aS'003868'
p3
aa.(lp0
.(lp0
(lp1
S'parserWebContents'
p2
aS'004051'
p3
aa.(lp0
.(lp0
.(lp0
.(lp0
(lp1
S'parserWebContents'
p2
aS'004049'
p3
aa.(lp0
.(lp0
.(lp0
.(lp0
.(lp0
.(lp0
.(lp0
.(lp0
.(lp0
.(lp0
.(lp0
.(lp0
.(lp0
.(lp0
.(lp0
.(lp0
.(lp0
.(lp0
.(lp0
.(lp0
(lp1
S'saveWebContents'
p2
aS'004879'
p3
aa.(lp0
.(lp0
.(lp0
.(lp0
.(lp0
.(lp0
.(lp0
.(lp0
.(lp0
.(lp0
.(lp0
.(lp0
.(lp0
.(lp0
.(lp0
.(lp0
.(lp0
.(lp0
.(lp0
.(lp0
.(lp0
.(lp0
.(lp0
.(lp0
.(lp0
.(lp0
.(lp0
.(lp0
.(lp0
.(lp0
.(lp0
.(lp0
.(lp0
.(lp0
.(lp0
.(lp0
.(lp0
.(lp0
.(lp0
.(lp0
.(lp0
.(lp0
.(lp0
.(lp0
.(lp0
.(lp0
.(lp0
.(lp0
.(lp0
.(lp0
.(lp0
.(lp0
.(lp0
.(lp0
.(lp0
.(lp0
.(lp0
.(lp0
.(lp0
.(lp0
.(lp0
.(lp0
.(lp0
.(lp0
.(lp0
.(lp0
.(lp0
.(lp0
.(lp0
.(lp0
.(lp0
.(lp0
.(lp0
.(lp0
.(lp0
.(lp0
.(lp0
.(lp0
.(lp0
.(lp0
.(lp0
.(lp0
.(lp0
.(lp0
.(lp0
.(lp0
.(lp0
.(lp0
.(lp0
.(lp0
.(lp0
.(lp0
.(lp0
.(lp0
.(lp0
.(lp0
.(lp0
.(lp0
.(lp0
.(lp0
.(lp0
.(lp0
.(lp0
.(lp0
.(lp0
.(lp0
.(lp0
.(lp0
.(lp0
.(lp0
.(lp0
.(lp0
.(lp0
.(lp0
.(lp0
.(lp0
.(lp0
.(lp0
.(lp0
.(lp0
.(lp0
.(lp0
.(lp0
.(lp0
.(lp0
.(lp0
.(lp0
.(lp0
.(lp0
.(lp0
.(lp0
.(lp0
.(lp0
.(lp0
.(lp0
.(lp0
.(lp0
.(lp0
.(lp0
.(lp0
.(lp0
.(lp0
.(lp0
.(lp0
.(lp0
.(lp0
.(lp0
.(lp0
.(lp0
.(lp0
.(lp0
.(lp0
.(lp0
.(lp0
.(lp0
.(lp0
.(lp0
.(lp0
.(lp0
.(lp0
.(lp0
.(lp0
.(lp0
.(lp0
.(lp0
.(lp0
.(lp0
.(lp0
.(lp0
.(lp0
.(lp0
.(lp0
.(lp0
.(lp0
.(lp0
.(lp0
.(lp0
.(lp0
.(lp0
.(lp0
.(lp0
.(lp0
.(lp0
.(lp0
.(lp0
.(lp0
.(lp0
.(lp0
.(lp0
.(lp0
.(lp0
.(lp0
.(lp0
.(lp0
.(lp0
.(lp0
.(lp0
.(lp0
.(lp0
.(lp0
.(lp0
.(lp0
.(lp0
.(lp0
.(lp0
.(lp0
.(lp0
.(lp0
.(lp0
.(lp0
.(lp0
.(lp0
.(lp0
.(lp0
.(lp0
.(lp0
.(lp0
.(lp0
.(lp0
.(lp0
.(lp0
.(lp0
.(lp0
.(lp0
.(lp0
.(lp0
.(lp0
.(lp0
.(lp0
.(lp0
.(lp0
.(lp0
.(lp0
.(lp0
.(lp0
.(lp0
.(lp0
.(lp0
.(lp0
.