(lp0
.(lp0
.(lp0
.(lp0
.(lp0
.(lp0
.(lp0
.(lp0
.(lp0
.(lp0
.(lp0
.(lp0
.(lp0
.(lp0
.(lp0
.(lp0
.(lp0
.(lp0
.(lp0
.(lp0
.(lp0
.(lp0
.(lp0
.(lp0
.(lp0
.(lp0
.(lp0
.(lp0
.(lp0
.(lp0
.(lp0
.(lp0
.(lp0
.(lp0
.(lp0
.(lp0
.(lp0
.(lp0
.(lp0
.(lp0
.(lp0
.(lp0
.(lp0
.(lp0
.(lp0
.(lp0
.(lp0
.(lp0
.(lp0
.(lp0
.(lp0
.(lp0
.(lp0
.(lp0
.(lp0
.(lp0
.(lp0
.(lp0
.(lp0
.(lp0
.(lp0
.(lp0
.(lp0
.(lp0
.(lp0
.(lp0
.(lp0
.(lp0
.(lp0
.(lp0
.(lp0
.(lp0
.(lp0
.(lp0
.(lp0
.(lp0
.(lp0
.(lp0
.(lp0
.(lp0
.(lp0
.(lp0
.(lp0
.(lp0
.(lp0
.(lp0
.(lp0
.(lp0
.(lp0
.(lp0
.(lp0
.(lp0
.(lp0
.(lp0
.(lp0
.(lp0
.(lp0
.(lp0
.(lp0
.(lp0
.(lp0
.(lp0
.(lp0
.(lp0
.(lp0
.(lp0
.(lp0
.(lp0
.(lp0
.(lp0
.(lp0
.(lp0
.(lp0
.(lp0
.(lp0
.(lp0
.(lp0
.(lp0
.(lp0
.(lp0
.(lp0
.(lp0
.(lp0
.(lp0
.(lp0
.(lp0
.(lp0
.(lp0
.(lp0
.(lp0
.(lp0
.(lp0
.(lp0
.(lp0
.(lp0
.(lp0
.(lp0
.(lp0
.(lp0
.(lp0
.(lp0
.(lp0
.(lp0
.(lp0
.(lp0
.(lp0
.(lp0
.(lp0
.(lp0
.(lp0
.(lp0
.(lp0
.(lp0
.(lp0
.(lp0
.(lp0
.(lp0
.(lp0
.(lp0
.(lp0
.(lp0
.(lp0
.(lp0
.(lp0
.(lp0
.(lp0
.(lp0
.(lp0
.(lp0
.(lp0
.(lp0
.(lp0
.(lp0
.(lp0
.(lp0
.(lp0
.(lp0
.(lp0
.(lp0
.(lp0
.(lp0
.(lp0
.(lp0
.(lp0
.(lp0
.(lp0
.(lp0
.(lp0
.(lp0
.(lp0
.(lp0
.(lp0
.(lp0
.(lp0
.(lp0
.(lp0
.(lp0
.(lp0
.(lp0
.(lp0
.(lp0
.(lp0
.(lp0
.(lp0
.(lp0
.(lp0
.(lp0
.(lp0
.(lp0
.(lp0
.(lp0
.(lp0
.(lp0
.(lp0
.(lp0
.(lp0
.(lp0
.(lp0
.(lp0
.(lp0
.(lp0
.(lp0
.(lp0
.(lp0
.(lp0
.(lp0
.(lp0
.(lp0
.(lp0
.(lp0
.(lp0
.(lp0
.(lp0
.(lp0
.(lp0
.(lp0
.(lp0
.(lp0
.(lp0
.(lp0
.(lp0
.(lp0
.(lp0
.(lp0
.(lp0
.(lp0
.(lp0
.(lp0
.(lp0
.(lp0
.(lp0
.(lp0
.(lp0
.(lp0
.(lp0
.(lp0
.(lp0
.(lp0
.(lp0
.(lp0
.(lp0
.(lp0
.(lp0
.(lp0
.(lp0
.(lp0
.(lp0
.(lp0
.(lp0
.(lp0
.(lp0
.(lp0
.(lp0
.(lp0
.(lp0
.(lp0
.(lp0
.(lp0
.(lp0
.(lp0
.(lp0
.(lp0
.(lp0
.(lp0
.(lp0
.(lp0
.(lp0
.(lp0
.(lp0
.(lp0
.(lp0
.(lp0
.(lp0
.(lp0
.(lp0
.(lp0
.(lp0
.(lp0
.(lp0
.(lp0
.(lp0
.(lp0
.(lp0
.(lp0
.(lp0
.(lp0
.(lp0
.(lp0
.(lp0
.(lp0
.(lp0
.(lp0
.(lp0
.(lp0
.(lp0
.(lp0
.(lp0
.(lp0
.(lp0
.(lp0
.(lp0
.(lp0
.(lp0
.(lp0
.(lp0
.(lp0
.(lp0
.(lp0
.(lp0
.(lp0
.(lp0
.(lp0
.(lp0
.(lp0
.(lp0
.(lp0
.(lp0
.(lp0
.(lp0
.(lp0
.(lp0
.(lp0
.(lp0
.(lp0
.(lp0
.(lp0
.(lp0
.(lp0
.(lp0
.(lp0
.(lp0
.(lp0
.(lp0
.(lp0
.(lp0
.(lp0
.(lp0
.(lp0
.(lp0
.(lp0
.(lp0
.(lp0
.(lp0
.(lp0
.(lp0
.(lp0
.(lp0
.(lp0
.(lp0
.(lp0
.(lp0
.(lp0
.(lp0
.(lp0
.(lp0
.(lp0
.(lp0
.(lp0
.(lp0
.(lp0
.(lp0
.(lp0
.(lp0
.(lp0
.(lp0
.(lp0
.(lp0
.(lp0
.(lp0
.(lp0
.(lp0
.(lp0
.(lp0
.(lp0
.(lp0
.(lp0
.(lp0
.(lp0
.(lp0
.(lp0
.(lp0
.(lp0
.(lp0
.(lp0
.(lp0
.(lp0
.(lp0
.(lp0
.(lp0
.(lp0
.(lp0
.(lp0
.(lp0
.(lp0
.(lp0
.(lp0
.(lp0
.(lp0
.(lp0
.(lp0
.(lp0
.(lp0
.(lp0
.(lp0
.(lp0
.(lp0
.(lp0
.(lp0
.(lp0
.(lp0
.(lp0
.(lp0
.(lp0
.(lp0
.(lp0
.(lp0
.(lp0
.(lp0
.(lp0
.(lp0
.(lp0
.(lp0
.(lp0
.(lp0
.(lp0
.(lp0
.(lp0
.(lp0
.(lp0
.(lp0
.(lp0
.(lp0
.(lp0
.(lp0
.(lp0
.(lp0
.(lp0
.(lp0
.(lp0
.(lp0
.(lp0
.(lp0
.(lp0
.(lp0
.(lp0
.(lp0
.(lp0
.(lp0
.(lp0
.(lp0
.(lp0
.(lp0
.(lp0
.(lp0
.(lp0
.(lp0
.(lp0
.(lp0
.(lp0
.(lp0
.(lp0
.(lp0
.(lp0
.(lp0
.(lp0
.(lp0
.(lp0
.(lp0
.(lp0
.(lp0
.(lp0
.(lp0
.(lp0
.(lp0
.(lp0
.(lp0
.(lp0
.(lp0
.(lp0
.(lp0
.(lp0
.(lp0
.(lp0
.(lp0
.(lp0
.(lp0
.(lp0
.(lp0
.(lp0
.(lp0
.(lp0
.(lp0
.(lp0
.(lp0
.(lp0
.(lp0
.(lp0
.(lp0
.(lp0
.(lp0
.(lp0
.(lp0
.(lp0
.(lp0
.(lp0
.(lp0
.(lp0
.(lp0
.(lp0
.(lp0
.(lp0
.(lp0
.(lp0
.(lp0
.(lp0
.(lp0
.(lp0
.(lp0
.(lp0
.(lp0
.(lp0
.(lp0
.(lp0
.(lp0
.(lp0
.(lp0
.(lp0
.(lp0
.(lp0
.(lp0
.(lp0
.(lp0
.(lp0
.(lp0
.(lp0
.(lp0
.(lp0
.(lp0
.(lp0
.(lp0
.(lp0
.(lp0
.(lp0
.(lp0
.(lp0
.(lp0
.(lp0
.(lp0
.(lp0
.(lp0
.(lp0
.(lp0
.(lp0
.(lp0
.(lp0
.(lp0
.(lp0
.(lp0
.(lp0
.(lp0
.(lp0
.(lp0
.(lp0
.(lp0
.(lp0
.(lp0
.(lp0
.(lp0
.(lp0
.(lp0
.(lp0
.(lp0
.(lp0
.(lp0
.(lp0
.(lp0
.(lp0
.(lp0
.(lp0
.(lp0
.(lp0
.(lp0
.(lp0
.(lp0
.(lp0
.(lp0
.(lp0
.(lp0
.(lp0
.(lp0
.(lp0
.(lp0
.(lp0
.(lp0
.(lp0
.(lp0
.(lp0
.(lp0
.(lp0
.(lp0
.(lp0
.(lp0
.(lp0
.(lp0
.(lp0
.(lp0
.(lp0
.(lp0
.(lp0
.(lp0
.(lp0
.(lp0
.(lp0
.(lp0
.(lp0
.(lp0
.(lp0
.(lp0
.(lp0
.(lp0
.(lp0
.(lp0
.(lp0
.(lp0
.(lp0
.(lp0
.(lp0
.(lp0
.(lp0
.(lp0
.(lp0
.(lp0
.(lp0
.(lp0
.(lp0
.(lp0
.(lp0
.(lp0
.(lp0
.(lp0
.(lp0
.(lp0
.(lp0
.(lp0
.(lp0
.(lp0
.(lp0
.(lp0
.(lp0
.(lp0
.(lp0
.(lp0
.(lp0
.(lp0
.(lp0
.(lp0
.(lp0
.(lp0
.(lp0
.(lp0
.(lp0
.(lp0
.(lp0
.(lp0
.(lp0
.(lp0
.(lp0
.(lp0
.(lp0
.(lp0
.(lp0
.(lp0
.(lp0
.(lp0
.(lp0
.(lp0
.(lp0
.(lp0
.(lp0
.(lp0
.(lp0
.(lp0
.(lp0
.(lp0
.(lp0
.(lp0
.(lp0
.(lp0
.(lp0
.(lp0
.(lp0
.(lp0
.(lp0
.(lp0
.(lp0
.(lp0
.(lp0
.(lp0
.(lp0
.(lp0
.(lp0
.(lp0
.(lp0
.(lp0
.(lp0
.(lp0
.(lp0
.(lp0
.(lp0
.(lp0
.(lp0
.(lp0
.(lp0
.(lp0
.(lp0
.(lp0
.(lp0
.(lp0
.(lp0
.(lp0
.(lp0
.(lp0
.(lp0
.(lp0
.(lp0
.(lp0
.(lp0
.(lp0
.(lp0
.(lp0
.(lp0
.(lp0
.(lp0
.(lp0
.(lp0
.(lp0
.(lp0
.(lp0
.(lp0
.(lp0
.(lp0
.(lp0
.(lp0
.(lp0
.(lp0
.(lp0
.(lp0
.(lp0
.(lp0
.(lp0
.(lp0
.(lp0
.(lp0
.(lp0
.(lp0
.(lp0
.(lp0
.(lp0
.(lp0
.(lp0
.(lp0
.(lp0
.(lp0
.(lp0
.(lp0
.(lp0
.(lp0
.(lp0
.(lp0
.(lp0
.(lp0
.(lp0
.(lp0
.(lp0
.(lp0
.(lp0
.(lp0
.(lp0
.(lp0
.(lp0
.(lp0
.(lp0
.(lp0
.(lp0
.(lp0
.(lp0
.(lp0
.(lp0
.(lp0
.(lp0
.(lp0
.(lp0
.(lp0
.(lp0
.(lp0
.(lp0
.(lp0
.(lp0
.(lp0
.(lp0
.(lp0
.(lp0
.(lp0
.(lp0
.(lp0
.(lp0
.(lp0
.(lp0
.(lp0
.(lp0
.(lp0
.(lp0
.(lp0
.(lp0
.(lp0
.(lp0
.(lp0
.(lp0
.(lp0
.(lp0
.(lp0
.(lp0
.(lp0
.(lp0
.(lp0
.(lp0
.(lp0
.(lp0
.(lp0
.(lp0
.(lp0
.(lp0
.(lp0
.(lp0
.(lp0
.(lp0
.(lp0
.(lp0
.(lp0
.(lp0
.(lp0
.(lp0
.(lp0
.(lp0
.(lp0
.(lp0
.(lp0
.(lp0
.(lp0
.(lp0
.(lp0
.(lp0
.(lp0
.(lp0
.(lp0
.(lp0
.(lp0
.(lp0
.(lp0
.(lp0
.(lp0
.(lp0
.(lp0
.(lp0
.(lp0
.(lp0
.(lp0
.(lp0
.(lp0
.(lp0
.(lp0
.(lp0
.(lp0
.(lp0
.(lp0
.(lp0
.(lp0
.(lp0
.(lp0
.(lp0
.(lp0
.(lp0
.(lp0
.(lp0
.(lp0
.(lp0
.(lp0
.(lp0
.(lp0
.(lp0
.(lp0
.(lp0
.(lp0
.(lp0
.(lp0
.(lp0
.(lp0
.(lp0
.(lp0
.(lp0
.(lp0
.(lp0
.(lp0
.(lp0
.(lp0
.(lp0
.(lp0
.(lp0
.(lp0
.(lp0
.(lp0
.(lp0
.(lp0
.(lp0
.(lp0
.(lp0
.(lp0
.(lp0
.(lp0
.(lp0
.(lp0
.(lp0
.(lp0
.(lp0
.(lp0
.(lp0
.(lp0
.(lp0
.(lp0
.(lp0
.(lp0
.(lp0
.(lp0
.(lp0
.(lp0
.(lp0
.(lp0
.(lp0
.(lp0
.(lp0
.(lp0
.(lp0
.(lp0
.(lp0
.(lp0
.(lp0
.(lp0
.(lp0
.(lp0
.(lp0
.(lp0
.(lp0
.(lp0
.(lp0
.(lp0
.(lp0
.(lp0
.(lp0
.(lp0
.(lp0
.(lp0
.(lp0
.(lp0
.(lp0
.(lp0
.(lp0
.(lp0
.(lp0
.(lp0
.(lp0
.(lp0
.(lp0
.(lp0
.(lp0
.(lp0
.(lp0
.(lp0
.(lp0
.(lp0
.(lp0
.(lp0
.(lp0
.(lp0
.(lp0
.(lp0
.(lp0
.(lp0
.(lp0
.(lp0
.(lp0
.(lp0
.(lp0
.(lp0
.(lp0
.(lp0
.(lp0
.(lp0
.(lp0
.(lp0
.(lp0
.(lp0
.(lp0
.(lp0
.(lp0
.(lp0
.(lp0
.(lp0
.(lp0
.(lp0
.(lp0
.(lp0
.(lp0
.(lp0
.(lp0
.(lp0
.(lp0
.(lp0
.(lp0
.(lp0
.(lp0
.(lp0
.(lp0
.(lp0
.(lp0
.(lp0
.(lp0
.(lp0
.(lp0
.(lp0
.(lp0
.(lp0
.(lp0
.(lp0
.(lp0
.(lp0
.(lp0
.(lp0
.(lp0
.(lp0
.(lp0
.(lp0
.(lp0
.(lp0
.(lp0
.(lp0
.(lp0
.(lp0
.(lp0
.(lp0
.(lp0
.(lp0
.(lp0
.(lp0
.(lp0
.(lp0
.(lp0
.(lp0
.(lp0
.(lp0
.(lp0
.(lp0
.(lp0
.(lp0
.(lp0
.(lp0
.(lp0
.(lp0
.(lp0
.(lp0
.(lp0
.(lp0
.(lp0
.(lp0
.(lp0
.(lp0
.(lp0
.(lp0
.(lp0
.(lp0
.(lp0
.(lp0
.(lp0
.(lp0
.(lp0
.(lp0
.(lp0
.(lp0
.(lp0
.(lp0
.(lp0
.(lp0
.(lp0
.(lp0
.(lp0
.(lp0
.(lp0
.(lp0
.(lp0
.(lp0
.(lp0
.(lp0
.(lp0
.(lp0
.(lp0
.(lp0
.(lp0
.(lp0
.(lp0
.(lp0
.(lp0
.(lp0
.(lp0
.(lp0
.(lp0
.(lp0
.(lp0
.(lp0
.(lp0
.(lp0
.(lp0
.(lp0
.(lp0
.(lp0
.(lp0
.(lp0
.(lp0
.(lp0
.(lp0
.(lp0
.(lp0
.(lp0
.(lp0
.(lp0
.(lp0
.(lp0
.(lp0
.(lp0
.(lp0
.(lp0
.(lp0
.(lp0
.(lp0
.(lp0
.(lp0
.(lp0
.(lp0
.(lp0
.(lp0
.(lp0
.(lp0
.(lp0
.(lp0
.(lp0
.(lp0
.(lp0
.(lp0
.(lp0
.(lp0
.(lp0
.(lp0
.(lp0
.(lp0
.(lp0
.(lp0
.(lp0
.(lp0
.(lp0
.(lp0
.(lp0
.(lp0
.(lp0
.(lp0
.(lp0
.(lp0
.(lp0
.(lp0
.(lp0
.(lp0
.(lp0
.(lp0
.(lp0
.(lp0
.(lp0
.(lp0
.(lp0
.(lp0
.(lp0
.(lp0
.(lp0
.(lp0
.(lp0
.(lp0
.(lp0
.(lp0
.(lp0
.(lp0
.(lp0
.(lp0
.(lp0
.(lp0
.(lp0
.(lp0
.(lp0
.(lp0
.(lp0
.(lp0
.(lp0
.(lp0
.(lp0
.(lp0
.(lp0
.(lp0
.(lp0
.(lp0
.(lp0
.(lp0
.(lp0
.(lp0
.(lp0
.(lp0
.(lp0
.(lp0
.(lp0
.(lp0
.(lp0
.(lp0
.(lp0
.(lp0
.(lp0
.(lp0
.(lp0
.(lp0
.(lp0
.(lp0
.(lp0
.(lp0
.(lp0
.(lp0
.(lp0
.(lp0
.(lp0
.(lp0
.(lp0
.(lp0
.(lp0
.(lp0
.(lp0
.(lp0
.(lp0
.(lp0
.(lp0
.(lp0
.(lp0
.(lp0
.(lp0
.(lp0
.(lp0
.(lp0
.(lp0
.(lp0
.(lp0
.(lp0
.(lp0
.(lp0
.(lp0
.(lp0
.(lp0
.(lp0
.(lp0
.(lp0
.(lp0
.(lp0
.(lp0
.(lp0
.(lp0
.(lp0
.(lp0
.(lp0
.(lp0
.(lp0
.(lp0
.(lp0
.(lp0
.(lp0
.(lp0
.(lp0
.(lp0
.(lp0
.(lp0
.(lp0
.(lp0
.(lp0
.(lp0
.(lp0
.(lp0
.(lp0
.(lp0
.(lp0
.(lp0
.(lp0
.(lp0
.(lp0
.(lp0
.(lp0
.(lp0
.(lp0
.(lp0
.(lp0
.(lp0
.(lp0
.(lp0
.(lp0
.(lp0
.(lp0
.(lp0
.(lp0
.(lp0
.(lp0
.(lp0
.(lp0
.(lp0
.(lp0
.(lp0
.(lp0
.(lp0
.(lp0
.(lp0
.(lp0
.(lp0
.(lp0
.(lp0
.(lp0
.(lp0
.(lp0
.(lp0
.(lp0
.(lp0
.(lp0
.(lp0
.(lp0
.(lp0
.(lp0
.(lp0
.(lp0
.(lp0
.(lp0
.(lp0
.(lp0
.(lp0
.(lp0
.(lp0
.(lp0
.(lp0
.(lp0
.(lp0
.(lp0
.(lp0
.(lp0
.(lp0
.(lp0
.(lp0
.(lp0
.(lp0
.(lp0
.(lp0
.(lp0
.(lp0
.(lp0
.(lp0
.(lp0
.(lp0
.(lp0
.(lp0
.(lp0
.(lp0
.(lp0
.(lp0
.(lp0
.(lp0
.(lp0
.(lp0
.(lp0
.(lp0
.(lp0
.(lp0
.(lp0
.(lp0
.(lp0
.(lp0
.(lp0
.(lp0
.(lp0
.(lp0
.(lp0
.(lp0
.(lp0
.(lp0
.(lp0
.(lp0
.(lp0
.(lp0
.(lp0
.(lp0
.(lp0
.(lp0
.(lp0
.(lp0
.(lp0
.(lp0
.(lp0
.(lp0
.(lp0
.(lp0
.(lp0
.(lp0
.(lp0
.(lp0
.(lp0
.(lp0
.(lp0
.(lp0
.(lp0
.(lp0
.(lp0
.(lp0
.(lp0
.(lp0
.(lp0
.(lp0
.(lp0
.(lp0
.(lp0
.(lp0
.(lp0
.(lp0
.(lp0
.(lp0
.(lp0
.(lp0
.(lp0
.(lp0
.(lp0
.(lp0
.(lp0
.(lp0
.(lp0
.(lp0
.(lp0
.(lp0
.(lp0
.(lp0
.(lp0
.(lp0
.(lp0
.(lp0
.(lp0
.(lp0
.(lp0
.(lp0
.(lp0
.(lp0
.(lp0
.(lp0
.(lp0
.(lp0
.(lp0
.(lp0
.(lp0
.(lp0
.(lp0
.(lp0
.(lp0
.(lp0
.(lp0
.(lp0
.(lp0
.(lp0
.(lp0
.(lp0
.(lp0
.(lp0
.(lp0
.(lp0
.(lp0
.(lp0
.(lp0
.(lp0
.(lp0
.(lp0
.(lp0
.(lp0
.(lp0
.(lp0
.(lp0
.(lp0
.(lp0
.(lp0
.(lp0
.(lp0
.(lp0
.(lp0
.(lp0
.(lp0
.(lp0
.(lp0
.(lp0
.(lp0
.(lp0
.(lp0
.(lp0
.(lp0
.(lp0
.(lp0
.(lp0
.(lp0
.(lp0
.(lp0
.(lp0
.(lp0
.(lp0
.(lp0
.(lp0
.(lp0
.(lp0
.(lp0
.(lp0
.(lp0
.(lp0
.(lp0
.(lp0
.(lp0
.(lp0
.(lp0
.(lp0
.(lp0
.(lp0
.(lp0
.(lp0
.(lp0
.(lp0
.(lp0
.(lp0
.(lp0
.(lp0
.(lp0
.(lp0
.(lp0
.(lp0
.(lp0
.(lp0
.(lp0
.(lp0
.(lp0
.(lp0
.(lp0
.(lp0
.(lp0
.(lp0
.(lp0
.(lp0
.(lp0
.(lp0
.(lp0
.(lp0
.(lp0
.(lp0
.(lp0
.(lp0
.(lp0
.(lp0
.(lp0
.(lp0
.(lp0
.(lp0
.(lp0
.(lp0
.(lp0
.(lp0
.(lp0
.(lp0
.(lp0
.(lp0
.(lp0
.(lp0
.(lp0
.(lp0
.(lp0
.(lp0
.(lp0
.(lp0
.(lp0
.(lp0
.(lp0
.(lp0
.(lp0
.(lp0
.(lp0
.(lp0
.(lp0
.(lp0
.(lp0
.(lp0
.(lp0
.(lp0
.(lp0
.(lp0
.(lp0
.(lp0
.(lp0
.(lp0
.(lp0
.(lp0
.(lp0
.(lp0
.(lp0
.(lp0
.(lp0
.(lp0
.(lp0
.(lp0
.(lp0
.(lp0
.(lp0
.(lp0
.(lp0
.(lp0
.(lp0
.(lp0
.(lp0
.(lp0
.(lp0
.(lp0
.(lp0
.(lp0
.(lp0
.(lp0
.(lp0
.(lp0
.(lp0
.(lp0
.(lp0
.(lp0
.(lp0
.(lp0
.(lp0
.(lp0
.(lp0
.(lp0
.(lp0
.(lp0
.(lp0
.(lp0
.(lp0
.(lp0
.(lp0
.(lp0
.(lp0
.(lp0
.(lp0
.(lp0
.(lp0
.(lp0
.(lp0
.(lp0
.(lp0
.(lp0
.(lp0
.(lp0
.(lp0
.(lp0
.(lp0
.(lp0
.(lp0
.(lp0
.(lp0
.(lp0
.(lp0
.(lp0
.(lp0
.(lp0
.(lp0
.(lp0
.(lp0
.(lp0
.(lp0
.(lp0
.(lp0
.(lp0
.(lp0
.(lp0
.(lp0
.(lp0
.(lp0
.(lp0
.(lp0
.(lp0
.(lp0
.(lp0
.(lp0
.(lp0
.(lp0
.(lp0
.(lp0
.(lp0
.(lp0
.(lp0
.(lp0
.(lp0
.(lp0
.(lp0
.(lp0
.(lp0
.(lp0
.(lp0
.(lp0
.(lp0
.(lp0
.(lp0
.(lp0
.(lp0
.(lp0
.(lp0
.(lp0
.(lp0
.(lp0
.(lp0
.(lp0
.(lp0
.(lp0
.(lp0
.(lp0
.(lp0
.(lp0
.(lp0
.(lp0
.(lp0
.(lp0
.(lp0
.(lp0
.(lp0
.(lp0
.(lp0
.(lp0
.(lp0
.(lp0
.(lp0
.(lp0
.(lp0
.(lp0
.(lp0
.(lp0
.(lp0
.(lp0
.(lp0
.(lp0
.(lp0
.(lp0
.(lp0
.(lp0
.(lp0
.(lp0
.(lp0
.(lp0
.(lp0
.(lp0
.(lp0
.(lp0
.(lp0
.(lp0
.(lp0
.(lp0
.(lp0
.(lp0
.(lp0
.(lp0
.(lp0
.(lp0
.(lp0
.(lp0
.(lp0
.(lp0
.(lp0
.(lp0
.(lp0
.(lp0
.(lp0
.(lp0
.(lp0
.(lp0
.(lp0
.(lp0
.(lp0
.(lp0
.(lp0
.(lp0
.(lp0
.(lp0
.(lp0
.(lp0
.(lp0
.(lp0
.(lp0
.(lp0
.(lp0
.(lp0
.(lp0
.(lp0
.(lp0
.(lp0
.(lp0
.(lp0
.(lp0
.(lp0
.(lp0
.(lp0
.(lp0
.(lp0
.(lp0
.(lp0
.(lp0
.(lp0
.(lp0
.(lp0
.(lp0
.(lp0
.(lp0
.(lp0
.(lp0
.(lp0
.(lp0
.(lp0
.(lp0
.(lp0
.(lp0
.(lp0
.(lp0
.(lp0
.(lp0
.(lp0
.(lp0
.(lp0
.(lp0
.(lp0
.(lp0
.(lp0
.(lp0
.(lp0
.(lp0
.(lp0
.(lp0
.(lp0
.(lp0
.(lp0
.(lp0
.(lp0
.(lp0
.(lp0
.(lp0
.(lp0
.(lp0
.(lp0
.(lp0
.(lp0
.(lp0
.(lp0
.(lp0
.(lp0
.(lp0
.(lp0
.(lp0
.(lp0
.(lp0
.(lp0
.(lp0
.(lp0
.(lp0
.(lp0
.(lp0
.(lp0
.(lp0
.(lp0
.(lp0
.(lp0
.(lp0
.(lp0
.(lp0
.(lp0
.(lp0
.(lp0
.(lp0
.(lp0
.(lp0
.(lp0
.(lp0
.(lp0
.(lp0
.(lp0
.(lp0
.(lp0
.(lp0
.(lp0
.(lp0
.(lp0
.(lp0
.(lp0
.(lp0
.(lp0
.(lp0
.(lp0
.(lp0
.(lp0
.(lp0
.(lp0
.(lp0
.(lp0
.(lp0
.(lp0
.(lp0
.(lp0
.(lp0
.(lp0
.(lp0
.(lp0
.(lp0
.(lp0
.(lp0
.(lp0
.(lp0
.(lp0
.(lp0
.(lp0
.(lp0
.(lp0
.(lp0
.(lp0
.(lp0
.(lp0
.(lp0
.(lp0
.(lp0
.(lp0
.(lp0
.(lp0
.(lp0
.(lp0
.(lp0
.(lp0
.(lp0
.(lp0
.(lp0
.(lp0
.(lp0
.(lp0
.(lp0
.(lp0
.(lp0
.(lp0
.(lp0
.(lp0
.(lp0
.(lp0
.(lp0
.(lp0
.(lp0
.(lp0
.(lp0
.(lp0
.(lp0
.(lp0
.(lp0
.(lp0
.(lp0
.(lp0
.(lp0
.(lp0
.(lp0
.(lp0
.(lp0
.(lp0
.(lp0
.(lp0
.(lp0
.(lp0
.(lp0
.(lp0
.(lp0
.(lp0
.(lp0
.(lp0
.(lp0
.(lp0
.(lp0
.(lp0
.(lp0
.(lp0
.(lp0
.(lp0
.(lp0
.(lp0
.(lp0
.(lp0
.(lp0
.(lp0
.(lp0
.(lp0
.(lp0
.(lp0
.(lp0
.(lp0
.(lp0
.(lp0
.(lp0
.(lp0
.(lp0
.(lp0
.(lp0
.(lp0
.(lp0
.(lp0
.(lp0
.(lp0
.(lp0
.(lp0
.(lp0
.(lp0
.(lp0
.(lp0
.(lp0
.(lp0
.(lp0
.(lp0
.(lp0
.(lp0
.(lp0
.(lp0
.(lp0
.(lp0
.(lp0
.(lp0
.(lp0
.(lp0
.(lp0
.(lp0
.(lp0
.(lp0
.(lp0
.(lp0
.(lp0
.(lp0
.(lp0
.(lp0
.(lp0
.(lp0
.(lp0
.(lp0
.(lp0
.(lp0
.(lp0
.(lp0
.(lp0
.(lp0
.(lp0
.(lp0
.(lp0
.(lp0
.(lp0
.(lp0
.(lp0
.(lp0
.(lp0
.(lp0
.(lp0
.(lp0
.(lp0
.(lp0
.(lp0
.(lp0
.(lp0
.(lp0
.(lp0
.(lp0
.(lp0
.(lp0
.(lp0
.(lp0
.(lp0
.(lp0
.(lp0
.(lp0
.(lp0
.(lp0
.(lp0
.(lp0
.(lp0
.(lp0
.(lp0
.(lp0
.(lp0
.(lp0
.(lp0
.(lp0
.(lp0
.(lp0
.(lp0
.(lp0
.(lp0
.(lp0
.(lp0
.(lp0
.(lp0
.(lp0
.(lp0
.(lp0
.(lp0
.(lp0
.(lp0
.(lp0
.(lp0
.(lp0
.(lp0
.(lp0
.(lp0
.(lp0
.(lp0
.(lp0
.(lp0
.(lp0
.(lp0
.(lp0
.(lp0
.(lp0
.(lp0
.(lp0
.(lp0
.(lp0
.(lp0
.(lp0
.(lp0
.(lp0
.(lp0
.(lp0
.(lp0
.(lp0
.(lp0
.(lp0
.(lp0
.(lp0
.(lp0
.(lp0
.(lp0
.(lp0
.(lp0
.(lp0
.(lp0
.(lp0
.(lp0
.(lp0
.(lp0
.(lp0
.(lp0
.(lp0
.(lp0
.(lp0
.(lp0
.(lp0
.(lp0
.(lp0
.(lp0
.(lp0
.(lp0
.(lp0
.(lp0
.(lp0
.(lp0
.(lp0
.(lp0
.(lp0
.(lp0
.(lp0
.(lp0
.(lp0
.(lp0
.(lp0
.(lp0
.(lp0
.(lp0
.(lp0
.(lp0
.(lp0
.(lp0
.(lp0
.(lp0
.(lp0
.(lp0
.(lp0
.(lp0
.(lp0
.(lp0
.(lp0
.(lp0
.(lp0
.(lp0
.(lp0
.(lp0
.(lp0
.(lp0
.(lp0
.(lp0
.(lp0
.(lp0
.(lp0
.(lp0
.(lp0
.(lp0
.(lp0
.(lp0
.(lp0
.(lp0
.(lp0
.(lp0
.(lp0
.(lp0
.(lp0
.(lp0
.(lp0
.(lp0
.(lp0
.(lp0
.(lp0
.(lp0
.(lp0
.(lp0
.(lp0
.(lp0
.(lp0
.(lp0
.(lp0
.(lp0
.(lp0
.(lp0
.(lp0
.(lp0
.(lp0
.(lp0
.(lp0
.(lp0
.(lp0
.(lp0
.(lp0
.(lp0
.(lp0
.(lp0
.(lp0
.(lp0
.(lp0
.(lp0
.(lp0
.(lp0
.(lp0
.(lp0
.(lp0
.(lp0
.(lp0
.(lp0
.(lp0
.(lp0
.(lp0
.(lp0
.(lp0
.(lp0
.(lp0
.(lp0
.(lp0
.(lp0
.(lp0
.(lp0
.(lp0
.(lp0
.(lp0
.(lp0
.(lp0
.(lp0
.(lp0
.(lp0
.(lp0
.(lp0
.(lp0
.(lp0
.(lp0
.(lp0
.(lp0
.(lp0
.(lp0
.(lp0
.(lp0
.(lp0
.(lp0
.(lp0
.(lp0
.(lp0
.(lp0
.(lp0
.(lp0
.(lp0
.(lp0
.(lp0
.(lp0
.(lp0
.(lp0
.(lp0
.(lp0
.(lp0
.(lp0
.(lp0
.(lp0
.(lp0
.(lp0
.(lp0
.(lp0
.(lp0
.(lp0
.(lp0
.(lp0
.(lp0
.(lp0
.(lp0
.(lp0
.(lp0
.(lp0
.(lp0
.(lp0
.(lp0
.(lp0
.(lp0
.(lp0
.(lp0
.(lp0
.(lp0
.(lp0
.(lp0
.(lp0
.(lp0
.(lp0
.(lp0
.(lp0
.(lp0
.(lp0
.(lp0
.(lp0
.(lp0
.(lp0
.(lp0
.(lp0
.(lp0
.(lp0
.(lp0
.(lp0
.(lp0
.(lp0
.(lp0
.(lp0
.(lp0
.(lp0
.(lp0
.(lp0
.(lp0
.(lp0
.(lp0
.(lp0
.(lp0
.(lp0
.(lp0
.(lp0
.(lp0
.(lp0
.(lp0
.(lp0
.(lp0
.(lp0
.(lp0
.(lp0
.(lp0
.(lp0
.(lp0
.(lp0
.(lp0
.(lp0
.(lp0
.(lp0
.(lp0
.(lp0
.(lp0
.(lp0
.(lp0
.(lp0
.(lp0
.(lp0
.(lp0
.(lp0
.(lp0
.(lp0
.(lp0
.(lp0
.(lp0
.(lp0
.(lp0
.(lp0
.(lp0
.(lp0
.(lp0
.(lp0
.(lp0
.(lp0
.(lp0
.(lp0
.(lp0
.(lp0
.(lp0
.(lp0
.(lp0
.(lp0
.(lp0
.(lp0
.(lp0
.(lp0
.(lp0
.(lp0
.(lp0
.(lp0
.(lp0
.(lp0
.(lp0
.(lp0
.(lp0
.(lp0
.(lp0
.(lp0
.(lp0
.(lp0
.(lp0
.(lp0
.(lp0
.(lp0
.(lp0
.(lp0
.(lp0
.(lp0
.(lp0
.(lp0
.(lp0
.(lp0
.(lp0
.(lp0
.(lp0
.(lp0
.(lp0
.(lp0
.(lp0
.(lp0
.(lp0
.(lp0
.(lp0
.(lp0
.(lp0
.(lp0
.(lp0
.(lp0
.(lp0
.(lp0
.(lp0
.(lp0
.(lp0
.(lp0
.(lp0
.(lp0
.(lp0
.(lp0
.(lp0
.(lp0
.(lp0
.(lp0
.(lp0
.(lp0
.(lp0
.(lp0
.(lp0
.(lp0
.(lp0
.(lp0
.(lp0
.(lp0
.(lp0
.(lp0
.(lp0
.(lp0
.(lp0
.(lp0
.(lp0
.(lp0
.(lp0
.(lp0
.(lp0
.(lp0
.(lp0
.(lp0
.(lp0
.(lp0
.(lp0
.(lp0
.(lp0
.(lp0
.(lp0
.(lp0
.(lp0
.(lp0
.(lp0
.(lp0
.(lp0
.(lp0
.(lp0
.(lp0
.(lp0
.(lp0
.(lp0
.(lp0
.(lp0
.(lp0
.(lp0
.(lp0
.(lp0
.(lp0
.(lp0
.(lp0
.(lp0
.(lp0
.(lp0
.(lp0
.(lp0
.(lp0
.(lp0
.(lp0
.(lp0
.(lp0
.(lp0
.(lp0
.(lp0
.(lp0
.(lp0
.(lp0
.(lp0
.(lp0
.(lp0
.(lp0
.(lp0
.(lp0
.(lp0
.(lp0
.(lp0
.(lp0
.(lp0
.(lp0
.(lp0
.(lp0
.(lp0
.(lp0
.(lp0
.(lp0
.(lp0
.(lp0
.(lp0
.(lp0
.(lp0
.(lp0
.(lp0
.(lp0
.(lp0
.(lp0
.(lp0
.(lp0
.(lp0
.(lp0
.(lp0
.(lp0
.(lp0
.(lp0
.(lp0
.(lp0
.(lp0
.(lp0
.(lp0
.(lp0
.(lp0
.(lp0
.(lp0
.(lp0
.(lp0
.(lp0
.(lp0
.(lp0
.(lp0
.(lp0
.(lp0
.(lp0
.(lp0
.(lp0
.(lp0
.(lp0
.(lp0
.(lp0
.(lp0
.(lp0
.(lp0
.(lp0
.(lp0
.(lp0
.(lp0
.(lp0
.(lp0
.(lp0
.(lp0
.(lp0
.(lp0
.(lp0
.(lp0
.(lp0
.(lp0
.(lp0
.(lp0
.(lp0
.(lp0
.(lp0
.(lp0
.(lp0
.(lp0
.(lp0
.(lp0
.(lp0
.(lp0
.(lp0
.(lp0
.(lp0
.(lp0
.(lp0
.(lp0
.(lp0
.(lp0
.(lp0
.(lp0
.(lp0
.(lp0
.(lp0
.(lp0
.(lp0
.(lp0
.(lp0
.(lp0
.(lp0
.(lp0
.(lp0
.(lp0
.(lp0
.(lp0
.(lp0
.(lp0
.(lp0
.(lp0
.(lp0
.(lp0
.(lp0
.(lp0
.(lp0
.(lp0
.(lp0
.(lp0
.(lp0
.(lp0
.(lp0
.(lp0
.(lp0
.(lp0
.(lp0
.(lp0
.(lp0
.(lp0
.(lp0
.(lp0
.(lp0
.(lp0
.(lp0
.(lp0
.(lp0
.(lp0
.(lp0
.(lp0
.(lp0
.(lp0
.(lp0
.(lp0
.(lp0
.(lp0
.(lp0
.(lp0
.(lp0
.(lp0
.(lp0
.(lp0
.(lp0
.(lp0
.(lp0
.(lp0
.(lp0
.(lp0
.(lp0
.(lp0
.(lp0
.(lp0
.(lp0
.(lp0
.(lp0
.(lp0
.(lp0
.(lp0
.(lp0
.(lp0
.(lp0
.(lp0
.(lp0
.(lp0
.(lp0
.(lp0
.(lp0
.(lp0
.(lp0
.(lp0
.(lp0
.(lp0
.(lp0
.(lp0
.(lp0
.(lp0
.(lp0
.(lp0
.(lp0
.(lp0
.(lp0
.(lp0
.(lp0
.(lp0
.(lp0
.(lp0
.(lp0
.(lp0
.(lp0
.(lp0
.(lp0
.(lp0
.(lp0
.(lp0
.(lp0
.(lp0
.(lp0
.(lp0
.(lp0
.(lp0
.(lp0
.(lp0
.(lp0
.(lp0
.(lp0
.(lp0
.(lp0
.(lp0
.(lp0
.(lp0
.(lp0
.(lp0
.(lp0
.(lp0
.(lp0
.(lp0
.(lp0
.(lp0
.(lp0
.(lp0
.(lp0
.(lp0
.(lp0
.(lp0
.(lp0
.(lp0
.(lp0
.(lp0
.(lp0
.(lp0
.(lp0
.(lp0
.(lp0
.(lp0
.(lp0
.(lp0
.(lp0
.(lp0
.(lp0
.(lp0
.(lp0
.(lp0
.(lp0
.(lp0
.(lp0
.(lp0
.(lp0
.(lp0
.(lp0
.(lp0
.(lp0
.(lp0
.(lp0
.(lp0
.(lp0
.(lp0
.(lp0
.(lp0
.(lp0
.(lp0
.(lp0
.(lp0
.(lp0
.(lp0
.(lp0
.(lp0
.(lp0
.(lp0
.(lp0
.(lp0
.(lp0
.(lp0
.(lp0
.(lp0
.(lp0
.(lp0
.(lp0
.(lp0
.(lp0
.(lp0
.(lp0
.(lp0
.(lp0
.(lp0
.(lp0
.(lp0
.(lp0
.(lp0
.(lp0
.(lp0
.(lp0
.(lp0
.(lp0
.(lp0
.(lp0
.(lp0
.(lp0
.(lp0
.(lp0
.(lp0
.(lp0
.(lp0
.(lp0
.(lp0
.(lp0
.(lp0
.(lp0
.(lp0
.(lp0
.(lp0
.(lp0
.(lp0
.(lp0
.(lp0
.(lp0
.(lp0
.(lp0
.(lp0
.(lp0
.(lp0
.(lp0
.(lp0
.(lp0
.(lp0
.(lp0
.(lp0
.(lp0
.(lp0
.(lp0
.(lp0
.(lp0
.(lp0
.(lp0
.(lp0
.(lp0
.(lp0
.(lp0
.(lp0
.(lp0
.(lp0
.(lp0
.(lp0
.(lp0
.(lp0
.(lp0
.(lp0
.(lp0
.(lp0
.(lp0
.(lp0
.(lp0
.(lp0
.(lp0
.(lp0
.(lp0
.(lp0
.(lp0
.(lp0
.(lp0
.(lp0
.(lp0
.(lp0
.(lp0
.(lp0
.(lp0
.(lp0
.(lp0
.(lp0
.(lp0
.(lp0
.(lp0
.(lp0
.(lp0
.(lp0
.(lp0
.(lp0
.(lp0
.(lp0
.(lp0
.(lp0
.(lp0
.(lp0
.(lp0
.(lp0
.(lp0
.(lp0
.(lp0
.(lp0
.(lp0
.(lp0
.(lp0
.(lp0
.(lp0
.(lp0
.(lp0
.(lp0
.(lp0
.(lp0
.(lp0
.(lp0
.(lp0
.(lp0
.(lp0
.(lp0
.(lp0
.(lp0
.(lp0
.(lp0
.(lp0
.(lp0
.(lp0
.(lp0
.(lp0
.(lp0
.(lp0
.(lp0
.(lp0
.(lp0
.(lp0
.(lp0
.(lp0
.(lp0
.(lp0
.(lp0
.(lp0
.(lp0
.(lp0
.(lp0
.(lp0
.(lp0
.(lp0
.(lp0
.(lp0
.(lp0
.(lp0
.(lp0
.(lp0
.(lp0
.(lp0
.(lp0
.(lp0
.(lp0
.(lp0
.(lp0
.(lp0
.(lp0
.(lp0
.(lp0
.(lp0
.(lp0
.(lp0
.(lp0
.(lp0
.(lp0
.(lp0
.(lp0
.(lp0
.(lp0
.(lp0
.(lp0
.(lp0
.(lp0
.(lp0
.(lp0
.(lp0
.(lp0
.(lp0
.(lp0
.(lp0
.(lp0
.(lp0
.(lp0
.(lp0
.(lp0
.(lp0
.(lp0
.(lp0
.(lp0
.(lp0
.(lp0
.(lp0
.(lp0
.(lp0
.(lp0
.(lp0
.(lp0
.(lp0
.(lp0
.(lp0
.(lp0
.(lp0
.(lp0
.(lp0
.(lp0
.(lp0
.(lp0
.(lp0
.(lp0
.(lp0
.(lp0
.(lp0
.(lp0
.(lp0
.(lp0
.(lp0
.(lp0
.(lp0
.(lp0
.(lp0
.(lp0
.(lp0
.(lp0
.(lp0
.(lp0
.(lp0
.(lp0
.(lp0
.(lp0
.(lp0
.(lp0
.(lp0
.(lp0
.(lp0
.(lp0
.(lp0
.(lp0
.(lp0
.(lp0
.(lp0
.(lp0
.(lp0
.(lp0
.(lp0
.(lp0
.(lp0
.(lp0
.(lp0
.(lp0
.(lp0
.(lp0
.(lp0
.(lp0
.(lp0
.(lp0
.(lp0
.(lp0
.(lp0
.(lp0
.(lp0
.(lp0
.(lp0
.(lp0
.(lp0
.(lp0
.(lp0
.(lp0
.(lp0
.(lp0
.(lp0
.(lp0
.(lp0
.(lp0
.(lp0
.(lp0
.(lp0
.(lp0
.(lp0
.(lp0
.(lp0
.(lp0
.(lp0
.(lp0
.(lp0
.(lp0
.(lp0
.(lp0
.(lp0
.(lp0
.(lp0
.(lp0
.(lp0
.(lp0
.(lp0
.(lp0
.(lp0
.(lp0
.(lp0
.(lp0
.(lp0
.(lp0
.(lp0
.(lp0
.(lp0
.(lp0
.(lp0
.(lp0
.(lp0
.(lp0
.(lp0
.(lp0
.(lp0
.(lp0
.(lp0
.(lp0
.(lp0
.(lp0
.(lp0
.(lp0
.(lp0
.(lp0
.(lp0
.(lp0
.(lp0
.(lp0
.(lp0
.(lp0
.(lp0
.(lp0
.(lp0
.(lp0
.(lp0
.(lp0
.(lp0
.(lp0
.(lp0
.(lp0
.(lp0
.(lp0
.(lp0
.(lp0
.(lp0
.(lp0
.(lp0
.(lp0
.(lp0
.(lp0
.(lp0
.(lp0
.(lp0
.(lp0
.(lp0
.(lp0
.(lp0
.(lp0
.(lp0
.(lp0
.(lp0
.(lp0
.(lp0
.(lp0
.(lp0
.(lp0
.(lp0
.(lp0
.(lp0
.(lp0
.(lp0
.(lp0
.(lp0
.(lp0
.(lp0
.(lp0
.(lp0
.(lp0
.(lp0
.(lp0
.(lp0
.(lp0
.(lp0
.(lp0
.(lp0
.(lp0
.(lp0
.(lp0
.(lp0
.(lp0
.(lp0
.(lp0
.(lp0
.(lp0
.(lp0
.(lp0
.(lp0
.(lp0
.(lp0
.(lp0
.(lp0
.(lp0
.(lp0
.(lp0
.(lp0
.(lp0
.(lp0
.(lp0
.(lp0
.(lp0
.(lp0
.(lp0
.(lp0
.(lp0
.(lp0
.(lp0
.(lp0
.(lp0
.(lp0
.(lp0
.(lp0
.(lp0
.(lp0
.(lp0
.(lp0
.(lp0
.(lp0
.(lp0
.(lp0
.(lp0
.(lp0
.(lp0
.(lp0
.(lp0
.(lp0
.(lp0
.(lp0
.(lp0
.(lp0
.(lp0
.(lp0
.(lp0
.(lp0
.(lp0
.(lp0
.(lp0
.(lp0
.(lp0
.(lp0
.(lp0
.(lp0
.(lp0
.(lp0
.(lp0
.(lp0
.(lp0
.(lp0
.(lp0
.(lp0
.(lp0
.(lp0
.(lp0
.(lp0
.(lp0
.(lp0
.(lp0
.(lp0
.(lp0
.(lp0
.(lp0
.(lp0
.(lp0
.(lp0
.(lp0
.(lp0
.(lp0
.(lp0
.(lp0
.(lp0
.(lp0
.(lp0
.(lp0
.(lp0
.(lp0
.(lp0
.(lp0
.(lp0
.(lp0
.(lp0
.(lp0
.(lp0
.(lp0
.(lp0
.(lp0
.(lp0
.(lp0
.(lp0
.(lp0
.(lp0
.(lp0
.(lp0
.(lp0
.(lp0
.(lp0
.(lp0
.(lp0
.(lp0
.(lp0
.(lp0
.(lp0
.(lp0
.(lp0
.(lp0
.(lp0
.(lp0
.(lp0
.(lp0
.(lp0
.(lp0
.(lp0
.(lp0
.(lp0
.(lp0
.(lp0
.(lp0
.(lp0
.(lp0
.(lp0
.(lp0
.(lp0
.(lp0
.(lp0
.(lp0
.(lp0
.(lp0
.(lp0
.(lp0
.(lp0
.(lp0
.(lp0
.(lp0
.(lp0
.(lp0
.(lp0
.(lp0
.(lp0
.(lp0
.(lp0
.(lp0
.(lp0
.(lp0
.(lp0
.(lp0
.(lp0
.(lp0
.(lp0
.(lp0
.(lp0
.(lp0
.(lp0
.(lp0
.(lp0
.(lp0
.(lp0
.(lp0
.(lp0
.(lp0
.(lp0
.(lp0
.(lp0
.(lp0
.(lp0
.(lp0
.(lp0
.(lp0
.(lp0
.(lp0
.(lp0
.(lp0
.(lp0
.(lp0
.(lp0
.(lp0
.(lp0
.(lp0
.(lp0
.(lp0
.(lp0
.(lp0
.(lp0
.(lp0
.(lp0
.(lp0
.(lp0
.(lp0
.(lp0
.(lp0
.(lp0
.(lp0
.(lp0
.(lp0
.(lp0
.(lp0
.(lp0
.(lp0
.(lp0
.(lp0
.(lp0
.(lp0
.(lp0
.(lp0
.(lp0
.(lp0
.(lp0
.(lp0
.(lp0
.(lp0
.(lp0
.(lp0
.(lp0
.(lp0
.(lp0
.(lp0
.(lp0
.(lp0
.(lp0
.(lp0
.(lp0
.(lp0
.(lp0
.(lp0
.(lp0
.(lp0
.(lp0
.(lp0
.(lp0
.(lp0
.(lp0
.(lp0
.(lp0
.(lp0
.(lp0
.(lp0
.(lp0
.(lp0
.(lp0
.(lp0
.(lp0
.(lp0
.(lp0
.(lp0
.(lp0
.(lp0
.(lp0
.(lp0
.(lp0
.(lp0
.(lp0
.(lp0
.(lp0
.(lp0
.(lp0
.(lp0
.(lp0
.(lp0
.(lp0
.(lp0
.(lp0
.(lp0
.(lp0
.(lp0
.(lp0
.(lp0
.(lp0
.(lp0
.(lp0
.(lp0
.(lp0
.(lp0
.(lp0
.(lp0
.(lp0
.(lp0
.(lp0
.(lp0
.(lp0
.(lp0
.(lp0
.(lp0
.(lp0
.(lp0
.(lp0
.(lp0
.(lp0
.(lp0
.(lp0
.(lp0
.(lp0
.(lp0
.(lp0
.(lp0
.(lp0
.(lp0
.(lp0
.(lp0
.(lp0
.(lp0
.(lp0
.(lp0
.(lp0
.(lp0
.(lp0
.(lp0
.(lp0
.(lp0
.(lp0
.(lp0
.(lp0
.(lp0
.(lp0
.(lp0
.(lp0
.(lp0
.(lp0
.(lp0
.(lp0
.(lp0
.(lp0
.(lp0
.(lp0
.(lp0
.(lp0
.(lp0
.(lp0
.(lp0
.(lp0
.(lp0
.(lp0
.(lp0
.(lp0
.(lp0
.(lp0
.(lp0
.(lp0
.(lp0
.(lp0
.(lp0
.(lp0
.(lp0
.(lp0
.(lp0
.(lp0
.(lp0
.(lp0
.(lp0
.(lp0
.(lp0
.(lp0
.(lp0
.(lp0
.(lp0
.(lp0
.(lp0
.(lp0
.(lp0
.(lp0
.(lp0
.(lp0
.(lp0
.(lp0
.(lp0
.(lp0
.(lp0
.(lp0
.(lp0
.(lp0
.(lp0
.(lp0
.(lp0
.(lp0
.(lp0
.(lp0
.(lp0
.(lp0
.(lp0
.(lp0
.(lp0
.(lp0
.(lp0
.(lp0
.(lp0
.(lp0
.(lp0
.(lp0
.(lp0
.(lp0
.(lp0
.(lp0
.(lp0
.(lp0
.(lp0
.(lp0
.(lp0
.(lp0
.(lp0
.(lp0
.(lp0
.(lp0
.(lp0
.(lp0
.(lp0
.(lp0
.(lp0
.(lp0
.(lp0
.(lp0
.(lp0
.(lp0
.(lp0
.(lp0
.(lp0
.(lp0
.(lp0
.(lp0
.(lp0
.(lp0
.(lp0
.(lp0
.(lp0
.(lp0
.(lp0
.(lp0
.(lp0
.(lp0
.(lp0
.(lp0
.(lp0
.(lp0
.(lp0
.(lp0
.(lp0
.(lp0
.(lp0
.(lp0
.(lp0
.(lp0
.(lp0
.(lp0
.(lp0
.(lp0
.(lp0
.(lp0
.(lp0
.(lp0
.(lp0
.(lp0
.(lp0
.(lp0
.(lp0
.(lp0
.(lp0
.(lp0
.(lp0
.(lp0
.(lp0
.(lp0
.(lp0
.(lp0
.(lp0
.(lp0
.(lp0
.(lp0
.(lp0
.(lp0
.(lp0
.(lp0
.(lp0
.(lp0
.(lp0
.(lp0
.(lp0
.(lp0
.(lp0
.(lp0
.(lp0
.(lp0
.(lp0
.(lp0
.(lp0
.(lp0
.(lp0
.(lp0
.(lp0
.(lp0
.(lp0
.(lp0
.(lp0
.(lp0
.(lp0
.(lp0
.(lp0
.(lp0
.(lp0
.(lp0
.(lp0
.(lp0
.(lp0
.(lp0
.(lp0
.(lp0
.(lp0
.(lp0
.(lp0
.(lp0
.(lp0
.(lp0
.(lp0
.(lp0
.(lp0
.(lp0
.(lp0
.(lp0
.(lp0
.(lp0
.(lp0
.(lp0
.(lp0
.(lp0
.(lp0
.(lp0
.(lp0
.(lp0
.(lp0
.(lp0
.(lp0
.(lp0
.(lp0
.(lp0
.(lp0
.(lp0
.(lp0
.(lp0
.(lp0
.(lp0
.(lp0
.(lp0
.(lp0
.(lp0
.(lp0
.(lp0
.(lp0
.(lp0
.(lp0
.(lp0
.(lp0
.(lp0
.(lp0
.(lp0
.(lp0
.(lp0
.(lp0
.(lp0
.(lp0
.(lp0
.(lp0
.(lp0
.(lp0
.(lp0
.(lp0
.(lp0
.(lp0
.(lp0
.(lp0
.(lp0
.(lp0
.(lp0
.(lp0
.(lp0
.(lp0
.(lp0
.(lp0
.(lp0
.(lp0
.(lp0
.(lp0
.(lp0
.(lp0
.(lp0
.(lp0
.(lp0
.(lp0
.(lp0
.(lp0
.(lp0
.(lp0
.(lp0
.(lp0
.(lp0
.(lp0
.(lp0
.(lp0
.(lp0
.(lp0
.(lp0
.(lp0
.(lp0
.(lp0
.(lp0
.(lp0
.(lp0
.(lp0
.(lp0
.(lp0
.(lp0
.(lp0
.(lp0
.(lp0
.(lp0
.(lp0
.(lp0
.(lp0
.(lp0
.(lp0
.(lp0
.(lp0
.(lp0
.(lp0
.(lp0
.(lp0
.(lp0
.(lp0
.(lp0
.(lp0
.(lp0
.(lp0
.(lp0
.(lp0
.(lp0
.(lp0
.(lp0
.(lp0
.(lp0
.(lp0
.(lp0
.(lp0
.(lp0
.(lp0
.(lp0
.(lp0
.(lp0
.(lp0
.(lp0
.(lp0
.(lp0
.(lp0
.(lp0
.(lp0
.(lp0
.(lp0
.(lp0
.(lp0
.(lp0
.(lp0
.(lp0
.(lp0
.(lp0
.(lp0
.(lp0
.(lp0
.(lp0
.(lp0
.(lp0
.(lp0
.(lp0
.(lp0
.(lp0
.(lp0
.(lp0
.(lp0
.(lp0
.(lp0
.(lp0
.(lp0
.(lp0
.(lp0
.(lp0
.(lp0
.(lp0
.(lp0
.(lp0
.(lp0
.(lp0
.(lp0
.(lp0
.(lp0
.(lp0
.(lp0
.(lp0
.(lp0
.(lp0
.(lp0
.(lp0
.(lp0
.(lp0
.(lp0
.(lp0
.(lp0
.(lp0
.(lp0
.(lp0
.(lp0
.(lp0
.(lp0
.(lp0
.(lp0
.(lp0
.(lp0
.(lp0
.(lp0
.(lp0
.(lp0
.(lp0
.(lp0
.(lp0
.(lp0
.(lp0
.(lp0
.(lp0
.(lp0
.(lp0
.(lp0
.(lp0
.(lp0
.(lp0
.(lp0
.(lp0
.(lp0
.(lp0
.(lp0
.(lp0
.(lp0
.(lp0
.(lp0
.(lp0
.(lp0
.(lp0
.(lp0
.(lp0
.(lp0
.(lp0
.(lp0
.(lp0
.(lp0
.(lp0
.(lp0
.(lp0
.(lp0
.(lp0
.(lp0
.(lp0
.(lp0
.(lp0
.(lp0
.(lp0
.(lp0
.(lp0
.(lp0
.(lp0
.(lp0
.(lp0
.(lp0
.(lp0
.(lp0
.(lp0
.(lp0
.(lp0
.(lp0
.(lp0
.(lp0
.(lp0
.(lp0
.(lp0
.(lp0
.(lp0
.(lp0
.(lp0
.(lp0
.(lp0
.(lp0
.(lp0
.(lp0
.(lp0
.(lp0
.(lp0
.(lp0
.(lp0
.(lp0
.(lp0
.(lp0
.(lp0
.(lp0
.(lp0
.(lp0
.(lp0
.(lp0
.(lp0
.(lp0
.(lp0
.(lp0
.(lp0
.(lp0
.(lp0
.(lp0
.(lp0
.(lp0
.(lp0
.(lp0
.(lp0
.(lp0
.(lp0
.(lp0
.(lp0
.(lp0
.(lp0
.(lp0
.(lp0
.(lp0
.(lp0
.(lp0
.(lp0
.(lp0
.(lp0
.(lp0
.(lp0
.(lp0
.(lp0
.(lp0
.(lp0
.(lp0
.(lp0
.(lp0
.(lp0
.(lp0
.(lp0
.(lp0
.(lp0
.(lp0
.(lp0
.(lp0
.(lp0
.(lp0
.(lp0
.(lp0
.(lp0
.(lp0
.(lp0
.(lp0
.(lp0
.(lp0
.(lp0
.(lp0
.(lp0
.(lp0
.(lp0
.(lp0
.(lp0
.(lp0
.(lp0
.(lp0
.(lp0
.(lp0
.(lp0
.(lp0
.(lp0
.(lp0
.(lp0
.(lp0
.(lp0
.(lp0
.(lp0
.(lp0
.(lp0
.(lp0
.(lp0
.(lp0
.(lp0
.(lp0
.(lp0
.(lp0
.(lp0
.(lp0
.(lp0
.(lp0
.(lp0
.(lp0
.(lp0
.(lp0
.(lp0
.(lp0
.(lp0
.(lp0
.(lp0
.(lp0
.(lp0
.(lp0
.(lp0
.(lp0
.(lp0
.(lp0
.(lp0
.(lp0
.(lp0
.(lp0
.(lp0
.(lp0
.(lp0
.(lp0
.(lp0
.(lp0
.(lp0
.(lp0
.(lp0
.(lp0
.(lp0
.(lp0
.(lp0
.(lp0
.(lp0
.(lp0
.(lp0
.(lp0
.(lp0
.(lp0
.(lp0
.(lp0
.(lp0
.(lp0
.(lp0
.(lp0
.(lp0
.(lp0
.(lp0
.(lp0
.(lp0
.(lp0
.(lp0
.(lp0
.(lp0
.(lp0
.(lp0
.(lp0
.(lp0
.(lp0
.(lp0
.(lp0
.(lp0
.(lp0
.(lp0
.(lp0
.(lp0
.(lp0
.(lp0
.(lp0
.(lp0
.(lp0
.(lp0
.(lp0
.(lp0
.(lp0
.(lp0
.(lp0
.(lp0
.(lp0
.(lp0
.(lp0
.(lp0
.(lp0
.(lp0
.(lp0
.(lp0
.(lp0
.(lp0
.(lp0
.(lp0
.(lp0
.(lp0
.(lp0
.(lp0
.(lp0
.(lp0
.(lp0
.(lp0
.(lp0
.(lp0
.(lp0
.(lp0
.(lp0
.(lp0
.(lp0
.(lp0
.(lp0
.(lp0
.(lp0
.(lp0
.(lp0
.(lp0
.(lp0
.(lp0
.(lp0
.(lp0
.(lp0
.(lp0
.(lp0
.(lp0
.(lp0
.(lp0
.(lp0
.(lp0
.(lp0
.(lp0
.(lp0
.(lp0
.(lp0
.(lp0
.(lp0
.(lp0
.(lp0
.(lp0
.(lp0
.(lp0
.(lp0
.(lp0
.(lp0
.(lp0
.(lp0
.(lp0
.(lp0
.(lp0
.(lp0
.(lp0
.(lp0
.(lp0
.(lp0
.(lp0
.(lp0
.(lp0
.(lp0
.(lp0
.(lp0
.(lp0
.(lp0
.(lp0
.(lp0
.(lp0
.(lp0
.(lp0
.(lp0
.(lp0
.(lp0
.(lp0
.(lp0
.(lp0
.(lp0
.(lp0
.(lp0
.(lp0
.(lp0
.(lp0
.(lp0
.(lp0
.(lp0
.(lp0
.(lp0
.(lp0
.(lp0
.(lp0
.(lp0
.(lp0
.(lp0
.(lp0
.(lp0
.(lp0
.(lp0
.(lp0
.(lp0
.(lp0
.(lp0
.(lp0
.(lp0
.(lp0
.(lp0
.(lp0
.(lp0
.(lp0
.(lp0
.(lp0
.(lp0
.(lp0
.(lp0
.(lp0
.(lp0
.(lp0
.(lp0
.(lp0
.(lp0
.(lp0
.(lp0
.(lp0
.(lp0
.(lp0
.(lp0
.(lp0
.(lp0
.(lp0
.(lp0
.(lp0
.(lp0
.(lp0
.(lp0
.(lp0
.(lp0
.(lp0
.(lp0
.(lp0
.(lp0
.(lp0
.(lp0
.(lp0
.(lp0
.(lp0
.(lp0
.(lp0
.(lp0
.(lp0
.(lp0
.(lp0
.(lp0
.(lp0
.(lp0
.(lp0
.(lp0
.(lp0
.(lp0
.(lp0
.(lp0
.(lp0
.(lp0
.(lp0
.(lp0
.(lp0
.(lp0
.(lp0
.(lp0
.(lp0
.(lp0
.(lp0
.(lp0
.(lp0
.(lp0
.(lp0
.(lp0
.(lp0
.(lp0
.(lp0
.(lp0
.(lp0
.(lp0
.(lp0
.(lp0
.(lp0
.(lp0
.(lp0
.(lp0
.(lp0
.(lp0
.(lp0
.(lp0
.(lp0
.(lp0
.(lp0
.(lp0
.(lp0
.(lp0
.(lp0
.(lp0
.(lp0
.(lp0
.(lp0
.(lp0
.(lp0
.(lp0
.(lp0
.(lp0
.(lp0
.(lp0
.(lp0
.(lp0
.(lp0
.(lp0
.(lp0
.(lp0
.(lp0
.(lp0
.(lp0
.(lp0
.(lp0
.(lp0
.(lp0
.(lp0
.(lp0
.(lp0
.(lp0
.(lp0
.(lp0
.(lp0
.(lp0
.(lp0
.(lp0
.(lp0
.(lp0
.(lp0
.(lp0
.(lp0
.(lp0
.(lp0
.(lp0
.(lp0
.(lp0
.(lp0
.(lp0
.(lp0
.(lp0
.(lp0
.(lp0
.(lp0
.(lp0
.(lp0
.(lp0
.(lp0
.(lp0
.(lp0
.(lp0
.(lp0
.(lp0
.(lp0
.(lp0
.(lp0
.(lp0
.(lp0
.(lp0
.(lp0
.(lp0
.(lp0
.(lp0
.(lp0
.(lp0
.(lp0
.(lp0
.(lp0
.(lp0
.(lp0
.(lp0
.(lp0
.(lp0
.(lp0
.(lp0
.(lp0
.(lp0
.(lp0
.(lp0
.(lp0
.(lp0
.(lp0
.(lp0
.(lp0
.(lp0
.(lp0
.(lp0
.(lp0
.(lp0
.(lp0
.(lp0
.(lp0
.(lp0
.(lp0
.(lp0
.(lp0
.(lp0
.(lp0
.(lp0
.(lp0
.(lp0
.(lp0
.(lp0
.(lp0
.(lp0
.(lp0
.(lp0
.(lp0
.(lp0
.(lp0
.(lp0
.(lp0
.(lp0
.(lp0
.(lp0
.(lp0
.(lp0
.(lp0
.(lp0
.(lp0
.(lp0
.(lp0
.(lp0
.(lp0
.(lp0
.(lp0
.(lp0
.(lp0
.(lp0
.(lp0
.(lp0
.(lp0
.(lp0
.(lp0
.(lp0
.(lp0
.(lp0
.(lp0
.(lp0
.(lp0
.(lp0
.(lp0
.(lp0
.(lp0
.(lp0
.(lp0
.(lp0
.(lp0
.(lp0
.(lp0
.(lp0
.(lp0
.(lp0
.(lp0
.(lp0
.(lp0
.(lp0
.(lp0
.(lp0
.(lp0
.(lp0
.(lp0
.(lp0
.(lp0
.(lp0
.(lp0
.(lp0
.(lp0
.(lp0
.(lp0
.(lp0
.(lp0
.(lp0
.(lp0
.(lp0
.(lp0
.(lp0
.(lp0
.(lp0
.(lp0
.(lp0
.(lp0
.(lp0
.(lp0
.(lp0
.(lp0
.(lp0
.(lp0
.(lp0
.(lp0
.(lp0
.(lp0
.(lp0
.(lp0
.(lp0
.(lp0
.(lp0
.(lp0
.(lp0
.(lp0
.(lp0
.(lp0
.(lp0
.(lp0
.(lp0
.(lp0
.(lp0
.(lp0
.(lp0
.(lp0
.(lp0
.(lp0
.(lp0
.(lp0
.(lp0
.(lp0
.(lp0
.(lp0
.(lp0
.(lp0
.(lp0
.(lp0
.(lp0
.(lp0
.(lp0
.(lp0
.(lp0
.(lp0
.(lp0
.(lp0
.(lp0
.(lp0
.(lp0
.(lp0
.(lp0
.(lp0
.(lp0
.(lp0
.(lp0
.(lp0
.(lp0
.(lp0
.(lp0
.(lp0
.(lp0
.(lp0
.(lp0
.(lp0
.(lp0
.(lp0
.(lp0
.(lp0
.(lp0
.(lp0
.(lp0
.(lp0
.(lp0
.(lp0
.(lp0
.(lp0
.(lp0
.(lp0
.(lp0
.(lp0
.(lp0
.(lp0
.(lp0
.(lp0
.(lp0
.(lp0
.(lp0
.(lp0
.(lp0
.(lp0
.(lp0
.(lp0
.(lp0
.(lp0
.(lp0
.(lp0
.(lp0
.(lp0
.(lp0
.(lp0
.(lp0
.(lp0
.(lp0
.(lp0
.(lp0
.(lp0
.(lp0
.(lp0
.(lp0
.(lp0
.(lp0
.(lp0
.(lp0
.(lp0
.(lp0
.(lp0
.(lp0
.(lp0
.(lp0
.(lp0
.(lp0
.(lp0
.(lp0
.(lp0
.(lp0
.(lp0
.(lp0
.(lp0
.(lp0
.(lp0
.(lp0
.(lp0
.(lp0
.(lp0
.(lp0
.(lp0
.(lp0
.(lp0
.(lp0
.(lp0
.(lp0
.(lp0
.(lp0
.(lp0
.(lp0
.(lp0
.(lp0
.(lp0
.(lp0
.(lp0
.(lp0
.(lp0
.(lp0
.(lp0
.(lp0
.(lp0
.(lp0
.(lp0
.(lp0
.(lp0
.(lp0
.(lp0
.(lp0
.(lp0
.(lp0
.(lp0
.(lp0
.(lp0
.(lp0
.(lp0
.(lp0
.(lp0
.(lp0
.(lp0
.(lp0
.(lp0
.(lp0
.(lp0
.(lp0
.(lp0
.(lp0
.(lp0
.(lp0
.(lp0
.(lp0
.(lp0
.(lp0
.(lp0
.(lp0
.(lp0
.(lp0
.(lp0
.(lp0
.(lp0
.(lp0
.(lp0
.(lp0
.(lp0
.(lp0
.(lp0
.(lp0
.(lp0
.(lp0
.(lp0
.(lp0
.(lp0
.(lp0
.(lp0
.(lp0
.(lp0
.(lp0
.(lp0
.(lp0
.(lp0
.(lp0
.(lp0
.(lp0
.(lp0
.(lp0
.(lp0
.(lp0
.(lp0
.(lp0
.(lp0
.(lp0
.(lp0
.(lp0
.(lp0
.(lp0
.(lp0
.(lp0
.(lp0
.(lp0
.(lp0
.(lp0
.(lp0
.(lp0
.(lp0
.(lp0
.(lp0
.(lp0
.(lp0
.(lp0
.(lp0
.(lp0
.(lp0
.(lp0
.(lp0
.(lp0
.(lp0
.(lp0
.(lp0
.(lp0
.(lp0
.(lp0
.(lp0
.(lp0
.(lp0
.(lp0
.(lp0
.(lp0
.(lp0
.(lp0
.(lp0
.(lp0
.(lp0
.(lp0
.(lp0
.(lp0
.(lp0
.(lp0
.(lp0
.(lp0
.(lp0
.(lp0
.(lp0
.(lp0
.(lp0
.(lp0
.(lp0
.(lp0
.(lp0
.(lp0
.(lp0
.(lp0
.(lp0
.(lp0
.(lp0
.(lp0
.(lp0
.(lp0
.(lp0
.(lp0
.(lp0
.(lp0
.(lp0
.(lp0
.(lp0
.(lp0
.(lp0
.(lp0
.(lp0
.(lp0
.(lp0
.(lp0
.(lp0
.(lp0
.(lp0
.(lp0
.(lp0
.(lp0
.(lp0
.(lp0
.(lp0
.(lp0
.(lp0
.(lp0
.(lp0
.(lp0
.(lp0
.(lp0
.(lp0
.(lp0
.(lp0
.(lp0
.(lp0
.(lp0
.(lp0
.(lp0
.(lp0
.(lp0
.(lp0
.(lp0
.(lp0
.(lp0
.(lp0
.(lp0
.(lp0
.(lp0
.(lp0
.(lp0
.(lp0
.(lp0
.(lp0
.(lp0
.(lp0
.(lp0
.(lp0
.(lp0
.(lp0
.(lp0
.(lp0
.(lp0
.(lp0
.(lp0
.(lp0
.(lp0
.(lp0
.(lp0
.(lp0
.(lp0
.(lp0
.(lp0
.(lp0
.(lp0
.(lp0
.(lp0
.(lp0
.(lp0
.(lp0
.(lp0
.(lp0
.(lp0
.(lp0
.(lp0
.(lp0
.(lp0
.(lp0
.(lp0
.(lp0
.(lp0
.(lp0
.(lp0
.(lp0
.(lp0
.(lp0
.(lp0
.(lp0
.(lp0
.(lp0
.(lp0
.(lp0
.(lp0
.(lp0
.(lp0
.(lp0
.(lp0
.(lp0
.(lp0
.(lp0
.(lp0
.(lp0
.(lp0
.(lp0
.(lp0
.(lp0
.(lp0
.(lp0
.(lp0
.(lp0
.(lp0
.(lp0
.(lp0
.(lp0
.(lp0
.(lp0
.(lp0
.(lp0
.(lp0
.(lp0
.(lp0
.(lp0
.(lp0
.(lp0
.(lp0
.(lp0
.(lp0
.(lp0
.(lp0
.(lp0
.(lp0
.(lp0
.(lp0
.(lp0
.(lp0
.(lp0
.(lp0
.(lp0
.(lp0
.(lp0
.(lp0
.(lp0
.(lp0
.(lp0
.(lp0
.(lp0
.(lp0
.(lp0
.(lp0
.(lp0
.(lp0
.(lp0
.(lp0
.(lp0
.(lp0
.(lp0
.(lp0
.(lp0
.(lp0
.(lp0
.(lp0
.(lp0
.(lp0
.(lp0
.(lp0
.(lp0
.(lp0
.(lp0
.(lp0
.(lp0
.(lp0
.(lp0
.(lp0
.(lp0
.(lp0
.(lp0
.(lp0
.(lp0
.(lp0
.(lp0
.(lp0
.(lp0
.(lp0
.(lp0
.(lp0
.(lp0
.(lp0
.(lp0
.(lp0
.(lp0
.(lp0
.(lp0
.(lp0
.(lp0
.(lp0
.(lp0
.(lp0
.(lp0
.(lp0
.(lp0
.(lp0
.(lp0
.(lp0
.(lp0
.(lp0
.(lp0
.(lp0
.(lp0
.(lp0
.(lp0
.(lp0
.(lp0
.(lp0
.(lp0
.(lp0
.(lp0
.(lp0
.(lp0
.(lp0
.(lp0
.(lp0
.(lp0
.(lp0
.(lp0
.(lp0
.(lp0
.(lp0
.(lp0
.(lp0
.(lp0
.(lp0
.(lp0
.(lp0
.(lp0
.(lp0
.(lp0
.(lp0
.(lp0
.(lp0
.(lp0
.(lp0
.(lp0
.(lp0
.(lp0
.(lp0
.(lp0
.(lp0
.(lp0
.(lp0
.(lp0
.(lp0
.(lp0
.(lp0
.(lp0
.(lp0
.(lp0
.(lp0
.(lp0
.(lp0
.(lp0
.(lp0
.(lp0
.(lp0
.(lp0
.(lp0
.(lp0
.(lp0
.(lp0
.(lp0
.(lp0
.(lp0
.(lp0
.(lp0
.(lp0
.(lp0
.(lp0
.(lp0
.(lp0
.(lp0
.(lp0
.(lp0
.(lp0
.(lp0
.(lp0
.(lp0
.(lp0
.(lp0
.(lp0
.(lp0
.(lp0
.(lp0
.(lp0
.(lp0
.(lp0
.(lp0
.(lp0
.(lp0
.(lp0
.(lp0
.(lp0
.(lp0
.(lp0
.(lp0
.(lp0
.(lp0
.(lp0
.(lp0
.(lp0
.(lp0
.(lp0
.(lp0
.(lp0
.(lp0
.(lp0
.(lp0
.(lp0
.(lp0
.(lp0
.(lp0
.(lp0
.(lp0
.(lp0
.(lp0
.(lp0
.(lp0
.(lp0
.(lp0
.(lp0
.(lp0
.(lp0
.(lp0
.(lp0
.(lp0
.(lp0
.(lp0
.(lp0
.(lp0
.(lp0
.(lp0
.(lp0
.(lp0
.(lp0
.(lp0
.(lp0
.(lp0
.(lp0
.(lp0
.(lp0
.(lp0
.(lp0
.(lp0
.(lp0
.(lp0
.(lp0
.(lp0
.(lp0
.(lp0
.(lp0
.(lp0
.(lp0
.(lp0
.(lp0
.(lp0
.(lp0
.(lp0
(lp1
S'getContentYears'
p2
aS'110022'
p3
aa.(lp0
(lp1
S'getContentYears'
p2
aS'110022'
p3
aa.(lp0
(lp1
S'getContentYears'
p2
aS'110022'
p3
aa.(lp0
(lp1
S'getYearlyContent'
p2
aS'110022'
p3
aa.(lp0
(lp1
S'getYearlyContent'
p2
aS'110022'
p3
aa.(lp0
(lp1
S'getYearlyContent'
p2
aS'110022'
p3
aa.(lp0
(lp1
S'getYearlyContent'
p2
aS'110022'
p3
aa.(lp0
(lp1
S'getYearlyContent'
p2
aS'110022'
p3
aa.(lp0
(lp1
S'getYearlyContent'
p2
aS'110022'
p3
aa.(lp0
(lp1
S'getYearlyContent'
p2
aS'110022'
p3
aa.(lp0
(lp1
S'saveWebContents'
p2
aS'110022'
p3
aa.(lp0
(lp1
S'saveWebContents'
p2
aS'110022'
p3
aa.(lp0
.(lp0
.(lp0
.(lp0
.(lp0
.(lp0
.(lp0
.(lp0
.(lp0
.(lp0
.(lp0
.(lp0
.(lp0
.(lp0
.(lp0
.(lp0
.(lp0
.(lp0
.(lp0
.(lp0
.(lp0
.(lp0
.(lp0
.(lp0
.(lp0
.(lp0
.(lp0
.(lp0
.(lp0
.(lp0
.(lp0
.(lp0
.(lp0
.(lp0
.(lp0
.(lp0
.(lp0
.(lp0
.(lp0
.(lp0
.(lp0
.(lp0
.(lp0
.(lp0
.(lp0
.(lp0
.(lp0
.(lp0
.(lp0
.(lp0
.(lp0
.(lp0
.(lp0
.(lp0
.(lp0
.(lp0
.(lp0
.(lp0
.(lp0
.(lp0
.(lp0
.(lp0
.(lp0
.(lp0
.(lp0
.(lp0
.(lp0
.(lp0
.(lp0
.(lp0
.(lp0
.(lp0
.(lp0
.(lp0
.(lp0
.(lp0
.(lp0
.(lp0
.(lp0
.(lp0
.(lp0
.(lp0
.(lp0
.(lp0
.(lp0
.(lp0
.(lp0
.(lp0
.(lp0
.(lp0
.(lp0
.(lp0
.(lp0
.(lp0
.(lp0
.(lp0
.(lp0
.(lp0
.(lp0
.(lp0
.(lp0
.(lp0
.(lp0
.(lp0
.(lp0
.(lp0
.(lp0
.(lp0
.(lp0
.(lp0
.(lp0
.(lp0
.(lp0
.(lp0
.(lp0
.(lp0
.(lp0
.(lp0
.(lp0
.(lp0
.(lp0
.(lp0
.(lp0
.(lp0
.(lp0
.(lp0
.(lp0
.(lp0
.(lp0
.(lp0
.(lp0
.(lp0
.(lp0
.(lp0
.(lp0
.(lp0
.(lp0
.(lp0
.(lp0
.(lp0
.(lp0
.(lp0
.(lp0
.(lp0
.(lp0
.(lp0
.(lp0
.(lp0
.(lp0
.(lp0
.(lp0
.(lp0
.(lp0
.(lp0
.(lp0
.(lp0
.(lp0
.(lp0
.(lp0
.(lp0
.(lp0
.(lp0
.(lp0
.(lp0
.(lp0
.(lp0
.(lp0
.(lp0
.(lp0
.(lp0
.(lp0
.(lp0
.(lp0
.(lp0
.(lp0
.(lp0
.(lp0
.(lp0
.(lp0
.(lp0
.(lp0
.(lp0
.(lp0
.(lp0
.(lp0
.(lp0
.(lp0
.(lp0
.(lp0
.(lp0
.(lp0
.(lp0
.(lp0
.(lp0
.(lp0
.(lp0
.(lp0
.(lp0
.(lp0
.(lp0
.(lp0
.(lp0
.(lp0
.(lp0
.(lp0
.(lp0
.(lp0
.(lp0
.(lp0
.(lp0
.(lp0
.(lp0
.(lp0
.(lp0
.(lp0
.(lp0
.(lp0
.(lp0
.(lp0
.(lp0
.(lp0
.(lp0
.(lp0
.(lp0
.(lp0
.(lp0
.(lp0
.(lp0
.(lp0
.(lp0
.(lp0
.(lp0
.(lp0
.(lp0
.(lp0
.(lp0
.(lp0
.(lp0
.(lp0
.(lp0
.(lp0
.(lp0
.(lp0
.(lp0
.(lp0
.(lp0
.(lp0
.(lp0
.(lp0
.(lp0
.(lp0
.(lp0
.(lp0
.(lp0
.(lp0
.(lp0
.(lp0
.(lp0
.(lp0
.(lp0
.(lp0
.(lp0
.(lp0
.(lp0
.(lp0
.(lp0
.(lp0
.(lp0
.(lp0
.(lp0
.(lp0
.(lp0
.(lp0
.(lp0
.(lp0
.(lp0
.(lp0
.(lp0
.(lp0
.(lp0
.(lp0
.(lp0
.(lp0
.(lp0
.(lp0
.(lp0
.(lp0
.(lp0
.(lp0
.(lp0
.(lp0
.(lp0
.(lp0
.(lp0
.(lp0
.(lp0
.(lp0
.(lp0
.(lp0
.(lp0
.(lp0
.(lp0
.(lp0
.(lp0
.(lp0
.(lp0
.(lp0
.(lp0
.(lp0
.(lp0
.(lp0
.(lp0
.(lp0
.(lp0
.(lp0
.(lp0
.(lp0
.(lp0
.(lp0
.(lp0
.(lp0
.(lp0
.(lp0
.(lp0
.(lp0
.(lp0
.(lp0
.(lp0
.(lp0
.(lp0
.(lp0
.(lp0
.(lp0
.(lp0
.(lp0
.(lp0
.(lp0
.(lp0
.(lp0
.(lp0
.(lp0
.(lp0
.(lp0
.(lp0
.(lp0
.(lp0
.(lp0
.(lp0
.(lp0
.(lp0
.(lp0
.(lp0
.(lp0
.(lp0
.(lp0
.(lp0
.(lp0
.(lp0
.(lp0
.(lp0
.(lp0
.(lp0
.(lp0
.(lp0
.(lp0
.(lp0
.(lp0
.(lp0
.(lp0
.(lp0
.(lp0
.(lp0
.(lp0
.(lp0
.(lp0
.(lp0
.(lp0
.(lp0
.(lp0
.(lp0
.(lp0
.(lp0
.(lp0
.(lp0
.(lp0
.(lp0
.(lp0
.(lp0
.(lp0
.(lp0
.(lp0
.(lp0
.(lp0
.(lp0
.(lp0
.(lp0
.(lp0
.(lp0
.(lp0
.(lp0
.(lp0
.(lp0
.(lp0
.(lp0
.(lp0
.(lp0
.(lp0
.(lp0
.(lp0
.(lp0
.(lp0
.(lp0
.(lp0
.(lp0
.(lp0
.(lp0
.(lp0
.(lp0
.(lp0
.(lp0
.(lp0
.(lp0
.(lp0
.(lp0
.(lp0
.(lp0
.(lp0
.(lp0
.(lp0
.(lp0
.(lp0
.(lp0
.(lp0
.(lp0
.(lp0
.(lp0
.(lp0
.(lp0
.(lp0
.(lp0
.(lp0
.(lp0
.(lp0
.(lp0
.(lp0
.(lp0
.(lp0
.(lp0
.(lp0
.(lp0
.(lp0
.(lp0
.(lp0
.(lp0
.(lp0
.(lp0
.(lp0
.(lp0
.(lp0
.(lp0
.(lp0
.(lp0
.(lp0
.(lp0
.(lp0
.(lp0
.(lp0
.(lp0
.(lp0
.(lp0
.(lp0
.(lp0
.(lp0
.(lp0
.(lp0
.(lp0
.(lp0
.(lp0
.(lp0
.(lp0
.(lp0
.(lp0
.(lp0
.(lp0
.(lp0
.(lp0
.(lp0
.(lp0
.(lp0
.(lp0
.(lp0
.(lp0
.(lp0
.(lp0
.(lp0
.(lp0
.(lp0
.(lp0
.(lp0
.(lp0
.(lp0
.(lp0
.(lp0
.(lp0
.(lp0
.(lp0
.(lp0
.(lp0
.(lp0
.(lp0
.(lp0
.(lp0
.(lp0
.(lp0
.(lp0
.(lp0
.(lp0
.(lp0
.(lp0
.(lp0
.(lp0
.(lp0
.(lp0
.(lp0
.(lp0
.(lp0
.(lp0
.(lp0
.(lp0
.(lp0
.(lp0
.(lp0
.(lp0
.(lp0
.(lp0
.(lp0
.(lp0
.(lp0
.(lp0
.(lp0
.(lp0
.(lp0
.(lp0
.(lp0
.(lp0
.(lp0
.(lp0
.(lp0
.(lp0
.(lp0
.(lp0
.(lp0
.(lp0
.(lp0
.(lp0
.(lp0
.(lp0
.(lp0
.(lp0
.(lp0
.(lp0
.(lp0
.(lp0
.(lp0
.(lp0
.(lp0
.(lp0
.(lp0
.(lp0
.(lp0
.(lp0
.(lp0
.(lp0
.(lp0
.(lp0
.(lp0
.(lp0
.(lp0
.(lp0
.(lp0
.(lp0
.(lp0
.(lp0
.(lp0
.(lp0
.(lp0
.(lp0
.(lp0
.(lp0
.(lp0
.(lp0
.(lp0
.(lp0
.(lp0
.(lp0
.(lp0
.(lp0
.(lp0
.(lp0
.(lp0
.(lp0
.(lp0
.(lp0
.(lp0
.(lp0
.(lp0
.(lp0
.(lp0
.(lp0
.(lp0
.(lp0
.(lp0
.(lp0
.(lp0
.(lp0
.(lp0
.(lp0
.(lp0
.(lp0
.(lp0
.(lp0
.(lp0
.(lp0
.(lp0
.(lp0
.(lp0
.(lp0
.(lp0
.(lp0
.(lp0
.(lp0
.(lp0
.(lp0
.(lp0
.(lp0
.(lp0
.(lp0
.(lp0
.(lp0
.(lp0
.(lp0
.(lp0
.(lp0
.(lp0
.(lp0
.(lp0
.(lp0
.(lp0
.(lp0
.(lp0
.(lp0
.(lp0
.(lp0
.(lp0
.(lp0
.(lp0
.(lp0
.(lp0
.(lp0
.(lp0
.(lp0
.(lp0
.(lp0
.(lp0
.(lp0
.(lp0
.(lp0
.(lp0
.(lp0
.(lp0
.(lp0
.(lp0
.(lp0
.(lp0
.(lp0
.(lp0
.(lp0
.(lp0
.(lp0
.(lp0
.(lp0
.(lp0
.(lp0
.(lp0
.(lp0
.(lp0
.(lp0
.(lp0
.(lp0
.(lp0
.(lp0
.(lp0
.(lp0
.(lp0
.(lp0
.(lp0
.(lp0
.(lp0
.(lp0
.(lp0
.(lp0
.(lp0
.(lp0
.(lp0
.(lp0
.(lp0
.(lp0
.(lp0
.(lp0
.(lp0
.(lp0
.(lp0
.(lp0
.(lp0
.(lp0
.(lp0
.(lp0
.(lp0
.(lp0
.(lp0
.(lp0
.(lp0
.(lp0
.(lp0
.(lp0
.(lp0
.(lp0
.(lp0
.(lp0
.(lp0
.(lp0
.(lp0
.(lp0
.(lp0
.(lp0
.(lp0
.(lp0
.(lp0
.(lp0
.(lp0
.(lp0
.(lp0
.(lp0
.(lp0
.(lp0
.(lp0
.(lp0
.(lp0
.(lp0
.(lp0
.(lp0
.(lp0
.(lp0
.(lp0
.(lp0
.(lp0
.(lp0
.(lp0
.(lp0
.(lp0
.(lp0
.(lp0
.(lp0
.(lp0
.(lp0
.(lp0
.(lp0
.(lp0
.(lp0
.(lp0
.(lp0
.(lp0
.(lp0
.(lp0
.(lp0
.(lp0
.(lp0
.(lp0
.(lp0
.(lp0
.(lp0
.(lp0
.(lp0
.(lp0
.(lp0
.(lp0
.(lp0
.(lp0
.(lp0
.(lp0
.(lp0
.(lp0
.(lp0
.(lp0
.(lp0
.(lp0
.(lp0
.(lp0
.(lp0
.(lp0
.(lp0
.(lp0
.(lp0
.(lp0
.(lp0
.(lp0
.(lp0
.(lp0
.(lp0
.(lp0
.(lp0
.(lp0
.(lp0
.(lp0
.(lp0
.(lp0
.(lp0
.(lp0
.(lp0
.(lp0
.(lp0
.(lp0
.(lp0
.(lp0
.(lp0
.(lp0
.(lp0
.(lp0
.(lp0
.(lp0
.(lp0
.(lp0
.(lp0
.(lp0
.(lp0
.(lp0
.(lp0
.(lp0
.(lp0
.(lp0
.(lp0
.(lp0
.(lp0
.(lp0
.(lp0
.(lp0
.(lp0
.(lp0
.(lp0
.(lp0
.(lp0
.(lp0
.(lp0
.(lp0
.(lp0
.(lp0
.(lp0
.(lp0
.(lp0
.(lp0
.(lp0
.(lp0
.(lp0
.(lp0
.(lp0
.(lp0
.(lp0
.(lp0
.(lp0
.(lp0
.(lp0
.(lp0
.(lp0
.(lp0
.(lp0
.(lp0
.(lp0
.(lp0
.(lp0
.(lp0
.(lp0
.(lp0
.(lp0
.(lp0
.(lp0
.(lp0
.(lp0
.(lp0
.(lp0
.(lp0
.(lp0
.(lp0
.(lp0
.(lp0
.(lp0
.(lp0
.(lp0
.(lp0
.(lp0
.(lp0
.(lp0
.(lp0
.(lp0
.(lp0
.(lp0
.(lp0
.(lp0
.(lp0
.(lp0
.(lp0
.(lp0
.(lp0
.(lp0
.(lp0
.(lp0
.(lp0
.(lp0
.(lp0
.(lp0
.(lp0
.(lp0
.(lp0
.(lp0
.(lp0
.(lp0
.(lp0
.(lp0
.(lp0
.(lp0
.(lp0
.(lp0
.(lp0
.(lp0
.(lp0
.(lp0
.(lp0
.(lp0
.(lp0
.(lp0
.(lp0
.(lp0
.(lp0
.(lp0
.(lp0
.(lp0
.(lp0
.(lp0
.(lp0
.(lp0
.(lp0
.(lp0
.(lp0
.(lp0
.(lp0
.(lp0
.(lp0
.(lp0
.(lp0
.(lp0
.(lp0
.(lp0
.(lp0
.(lp0
.(lp0
.(lp0
.(lp0
.(lp0
.(lp0
.(lp0
.(lp0
.(lp0
.(lp0
.(lp0
.(lp0
.(lp0
.(lp0
.(lp0
.(lp0
.(lp0
.(lp0
.(lp0
.(lp0
.(lp0
.(lp0
.(lp0
.(lp0
.(lp0
.(lp0
.(lp0
.(lp0
.(lp0
.(lp0
.(lp0
.(lp0
.(lp0
.(lp0
.(lp0
.(lp0
.(lp0
.(lp0
.(lp0
.(lp0
.(lp0
.(lp0
.(lp0
.(lp0
.(lp0
.(lp0
.(lp0
.(lp0
.(lp0
.(lp0
.(lp0
.(lp0
.(lp0
.(lp0
.(lp0
.(lp0
.(lp0
.(lp0
.(lp0
.(lp0
.(lp0
.(lp0
.(lp0
.(lp0
.(lp0
.(lp0
.(lp0
.(lp0
.(lp0
.(lp0
.(lp0
.(lp0
.(lp0
.(lp0
.(lp0
.(lp0
.(lp0
.(lp0
.(lp0
.(lp0
.(lp0
.(lp0
.(lp0
.(lp0
.(lp0
.(lp0
.(lp0
.(lp0
.(lp0
.(lp0
.(lp0
.(lp0
.(lp0
.(lp0
.(lp0
.(lp0
.(lp0
.(lp0
.(lp0
.(lp0
.(lp0
.(lp0
.(lp0
.(lp0
.(lp0
.(lp0
.(lp0
.(lp0
.(lp0
.(lp0
.(lp0
.(lp0
.(lp0
.(lp0
.(lp0
.(lp0
.(lp0
.(lp0
.(lp0
.(lp0
.(lp0
.(lp0
.(lp0
.(lp0
.(lp0
.(lp0
.(lp0
.(lp0
.(lp0
.(lp0
.(lp0
.(lp0
.(lp0
.(lp0
.(lp0
.(lp0
.(lp0
.(lp0
.(lp0
.(lp0
.(lp0
.(lp0
.(lp0
.(lp0
.(lp0
.(lp0
.(lp0
.(lp0
.(lp0
.(lp0
.(lp0
.(lp0
.(lp0
.(lp0
.(lp0
.(lp0
.(lp0
.(lp0
.(lp0
.(lp0
.(lp0
.(lp0
.(lp0
.(lp0
.(lp0
.(lp0
.(lp0
.(lp0
.(lp0
.(lp0
.(lp0
.(lp0
.(lp0
.(lp0
.(lp0
.(lp0
.(lp0
.(lp0
.(lp0
.(lp0
.(lp0
.(lp0
.(lp0
.(lp0
.(lp0
.(lp0
.(lp0
.(lp0
.(lp0
.(lp0
.(lp0
.(lp0
.(lp0
.(lp0
.(lp0
.(lp0
.(lp0
.(lp0
.(lp0
.(lp0
.(lp0
.(lp0
.(lp0
.(lp0
.(lp0
.(lp0
.(lp0
.(lp0
.(lp0
.(lp0
.(lp0
.(lp0
.(lp0
.(lp0
.(lp0
.(lp0
.(lp0
.(lp0
.(lp0
.(lp0
.(lp0
.(lp0
.(lp0
.(lp0
.(lp0
.(lp0
.(lp0
.(lp0
.(lp0
.(lp0
.(lp0
.(lp0
.(lp0
.(lp0
.(lp0
.(lp0
.(lp0
.(lp0
.(lp0
.(lp0
.(lp0
.(lp0
.(lp0
.(lp0
.(lp0
.(lp0
.(lp0
.(lp0
.(lp0
.(lp0
.(lp0
.(lp0
.(lp0
.(lp0
.(lp0
.(lp0
.(lp0
.(lp0
.(lp0
.(lp0
.(lp0
.(lp0
.(lp0
.(lp0
.(lp0
.(lp0
.(lp0
.(lp0
.(lp0
.(lp0
.(lp0
.(lp0
.(lp0
.(lp0
.(lp0
.(lp0
.(lp0
.(lp0
.(lp0
.(lp0
.(lp0
.(lp0
.(lp0
.(lp0
.(lp0
.(lp0
.(lp0
.(lp0
.(lp0
.(lp0
.(lp0
.(lp0
.(lp0
.(lp0
.(lp0
.(lp0
.(lp0
.(lp0
.(lp0
.(lp0
.(lp0
.(lp0
.(lp0
.(lp0
.(lp0
.(lp0
.(lp0
.(lp0
.(lp0
.(lp0
.(lp0
.(lp0
.(lp0
.(lp0
.(lp0
.(lp0
.(lp0
.(lp0
.(lp0
.(lp0
.(lp0
.(lp0
.(lp0
.(lp0
.(lp0
.(lp0
.(lp0
.(lp0
.(lp0
.(lp0
.(lp0
.(lp0
.(lp0
.(lp0
.(lp0
.(lp0
.(lp0
.(lp0
.(lp0
.(lp0
.(lp0
.(lp0
.(lp0
.(lp0
.(lp0
.(lp0
.(lp0
.(lp0
.(lp0
.(lp0
.(lp0
.(lp0
.(lp0
.(lp0
.(lp0
.(lp0
.(lp0
.(lp0
.(lp0
.(lp0
.(lp0
.(lp0
.(lp0
.(lp0
.(lp0
.(lp0
.(lp0
.(lp0
.(lp0
.(lp0
.(lp0
.(lp0
.(lp0
.(lp0
.(lp0
.(lp0
.(lp0
.(lp0
.(lp0
.(lp0
.(lp0
.(lp0
.(lp0
.(lp0
.(lp0
.(lp0
.(lp0
.(lp0
.(lp0
.(lp0
.(lp0
.(lp0
.(lp0
.(lp0
.(lp0
.(lp0
.(lp0
.(lp0
.(lp0
.(lp0
.(lp0
.(lp0
.(lp0
.(lp0
.(lp0
.(lp0
.(lp0
.(lp0
.(lp0
.(lp0
.(lp0
.(lp0
.(lp0
.(lp0
.(lp0
.(lp0
.(lp0
.(lp0
.(lp0
.(lp0
.(lp0
.(lp0
.(lp0
.(lp0
.(lp0
.(lp0
.(lp0
.(lp0
.(lp0
.(lp0
.(lp0
.(lp0
.(lp0
.(lp0
.(lp0
.(lp0
.(lp0
.(lp0
.(lp0
.(lp0
.(lp0
.(lp0
.(lp0
.(lp0
.(lp0
.(lp0
.(lp0
.(lp0
.(lp0
.(lp0
.(lp0
.(lp0
.(lp0
.(lp0
.(lp0
.(lp0
.(lp0
.(lp0
.(lp0
.(lp0
.(lp0
.(lp0
.(lp0
.(lp0
.(lp0
.(lp0
.(lp0
.(lp0
.(lp0
.(lp0
.(lp0
.(lp0
.(lp0
.(lp0
.(lp0
.(lp0
.(lp0
.(lp0
.(lp0
.(lp0
.(lp0
.(lp0
.(lp0
.(lp0
.(lp0
.(lp0
.(lp0
.(lp0
.(lp0
.(lp0
.(lp0
.(lp0
.(lp0
.(lp0
.(lp0
.(lp0
.(lp0
.(lp0
.(lp0
.(lp0
.(lp0
.(lp0
.(lp0
.(lp0
.(lp0
.(lp0
.(lp0
.(lp0
.(lp0
.(lp0
.(lp0
.(lp0
.(lp0
.(lp0
.(lp0
.(lp0
.(lp0
.(lp0
.(lp0
.(lp0
.(lp0
.(lp0
.(lp0
.(lp0
.(lp0
.(lp0
.(lp0
.(lp0
.(lp0
.(lp0
.(lp0
.(lp0
.(lp0
.(lp0
.(lp0
.(lp0
.(lp0
.(lp0
.(lp0
.(lp0
.(lp0
.(lp0
.(lp0
.(lp0
.(lp0
.(lp0
.(lp0
.(lp0
.(lp0
.(lp0
.(lp0
.(lp0
.(lp0
.(lp0
.(lp0
.(lp0
.(lp0
.(lp0
.(lp0
.(lp0
.(lp0
.(lp0
.(lp0
.(lp0
.(lp0
.(lp0
.(lp0
.(lp0
.(lp0
.(lp0
.(lp0
.(lp0
.(lp0
.(lp0
.(lp0
.(lp0
.(lp0
.(lp0
.(lp0
.(lp0
.(lp0
.(lp0
.(lp0
.(lp0
.(lp0
.(lp0
.(lp0
.(lp0
.(lp0
.(lp0
.(lp0
.(lp0
.(lp0
.(lp0
.(lp0
.(lp0
.(lp0
.(lp0
.(lp0
.(lp0
.(lp0
.(lp0
.(lp0
.(lp0
.(lp0
.(lp0
.(lp0
.(lp0
.(lp0
.(lp0
.(lp0
.(lp0
.(lp0
.(lp0
.(lp0
.(lp0
.(lp0
.(lp0
.(lp0
.(lp0
.(lp0
.(lp0
.(lp0
.(lp0
.(lp0
.(lp0
.(lp0
.(lp0
.(lp0
.(lp0
.(lp0
.(lp0
.(lp0
.(lp0
.(lp0
.(lp0
.(lp0
.(lp0
.(lp0
.(lp0
.(lp0
.(lp0
.(lp0
.(lp0
.(lp0
.(lp0
.(lp0
.(lp0
.(lp0
.(lp0
.(lp0
.(lp0
.(lp0
.(lp0
.(lp0
.(lp0
.(lp0
.(lp0
.(lp0
.(lp0
.(lp0
.(lp0
.(lp0
.(lp0
.(lp0
.(lp0
.(lp0
.(lp0
.(lp0
.(lp0
.(lp0
.(lp0
.(lp0
.(lp0
.(lp0
.(lp0
.(lp0
.(lp0
.(lp0
.(lp0
.(lp0
.(lp0
.(lp0
.(lp0
.(lp0
.(lp0
.(lp0
.(lp0
.(lp0
.(lp0
.(lp0
.(lp0
.(lp0
.(lp0
.(lp0
.(lp0
.(lp0
.(lp0
.(lp0
.(lp0
.(lp0
.(lp0
.(lp0
.(lp0
.(lp0
.(lp0
.(lp0
.(lp0
.(lp0
.(lp0
.(lp0
.(lp0
.(lp0
.(lp0
.(lp0
.(lp0
.(lp0
.(lp0
.(lp0
.(lp0
.(lp0
.(lp0
.(lp0
.(lp0
.(lp0
.(lp0
.(lp0
.(lp0
.(lp0
.(lp0
.(lp0
.(lp0
.(lp0
.(lp0
.(lp0
.(lp0
.(lp0
.(lp0
.(lp0
.(lp0
.(lp0
.(lp0
.(lp0
.(lp0
.(lp0
.(lp0
.(lp0
.(lp0
.(lp0
.(lp0
.(lp0
.(lp0
.(lp0
.(lp0
.(lp0
.(lp0
.(lp0
.(lp0
.(lp0
.(lp0
.(lp0
.(lp0
.(lp0
.(lp0
.(lp0
.(lp0
.(lp0
.(lp0
.(lp0
.(lp0
.(lp0
.(lp0
.(lp0
.(lp0
.(lp0
.(lp0
.(lp0
.(lp0
.(lp0
.(lp0
.(lp0
.(lp0
.(lp0
.(lp0
.(lp0
.(lp0
.(lp0
.(lp0
.(lp0
.(lp0
.(lp0
.(lp0
.(lp0
.(lp0
.(lp0
.(lp0
.(lp0
.(lp0
.(lp0
.(lp0
.(lp0
.(lp0
.(lp0
.(lp0
.(lp0
.(lp0
.(lp0
.(lp0
.(lp0
.(lp0
.(lp0
.(lp0
.(lp0
.(lp0
.(lp0
.(lp0
.(lp0
.(lp0
.(lp0
.(lp0
.(lp0
.(lp0
.(lp0
.(lp0
.(lp0
.(lp0
.(lp0
.(lp0
.(lp0
.(lp0
.(lp0
.(lp0
.(lp0
.(lp0
.(lp0
.(lp0
.(lp0
.(lp0
.(lp0
.(lp0
.(lp0
.(lp0
.(lp0
.(lp0
.(lp0
.(lp0
.(lp0
.(lp0
.(lp0
.(lp0
.(lp0
.(lp0
.(lp0
.(lp0
.(lp0
.(lp0
.(lp0
.(lp0
.(lp0
.(lp0
.(lp0
.(lp0
.(lp0
.(lp0
.(lp0
.(lp0
.(lp0
.(lp0
.(lp0
.(lp0
.(lp0
.(lp0
.(lp0
(lp1
S'saveWebContents'
p2
aS'160138'
p3
aa.(lp0
.(lp0
.(lp0
.(lp0
.(lp0
.(lp0
.(lp0
.(lp0
.(lp0
.(lp0
.(lp0
.(lp0
.(lp0
.(lp0
.(lp0
.(lp0
.(lp0
.(lp0
.(lp0
.(lp0
.(lp0
.(lp0
.(lp0
.(lp0
.(lp0
.(lp0
.(lp0
.(lp0
.(lp0
.(lp0
.(lp0
.(lp0
.(lp0
.(lp0
.(lp0
.(lp0
.(lp0
.(lp0
.(lp0
.(lp0
.(lp0
.(lp0
.(lp0
(lp1
S'saveWebContents'
p2
aS'160139'
p3
aa.(lp0
.(lp0
.(lp0
.(lp0
.(lp0
.(lp0
.(lp0
.(lp0
.(lp0
.(lp0
.(lp0
.(lp0
.(lp0
.(lp0
.(lp0
.(lp0
.(lp0
.(lp0
.(lp0
.(lp0
.(lp0
.(lp0
.(lp0
.(lp0
.(lp0
.(lp0
.(lp0
.(lp0
.(lp0
.(lp0
.(lp0
.(lp0
.(lp0
.(lp0
.(lp0
.(lp0
.(lp0
.(lp0
.(lp0
.(lp0
.(lp0
.(lp0
.(lp0
.(lp0
.(lp0
.(lp0
.(lp0
.(lp0
.(lp0
.(lp0
.(lp0
.(lp0
.(lp0
.(lp0
.(lp0
.(lp0
.(lp0
.(lp0
.(lp0
.(lp0
.(lp0
.(lp0
.(lp0
.(lp0
.(lp0
.(lp0
.(lp0
.(lp0
.(lp0
.(lp0
.(lp0
.(lp0
.(lp0
.(lp0
.(lp0
.(lp0
.(lp0
.(lp0
.(lp0
.(lp0
.(lp0
.(lp0
.(lp0
.(lp0
.(lp0
.(lp0
.(lp0
.(lp0
.(lp0
.(lp0
.(lp0
.(lp0
.(lp0
.(lp0
.(lp0
.(lp0
.(lp0
.(lp0
.(lp0
.(lp0
.(lp0
.(lp0
.(lp0
.(lp0
.(lp0
.(lp0
.(lp0
.(lp0
.(lp0
.(lp0
.(lp0
.(lp0
.(lp0
.(lp0
.(lp0
.(lp0
.(lp0
.(lp0
.(lp0
.(lp0
.(lp0
.(lp0
.(lp0
.(lp0
.(lp0
.(lp0
.(lp0
.(lp0
.(lp0
.(lp0
.(lp0
.(lp0
.(lp0
.(lp0
.(lp0
.(lp0
.(lp0
.(lp0
.(lp0
.(lp0
.(lp0
.(lp0
.(lp0
.(lp0
.(lp0
.(lp0
.(lp0
.(lp0
.(lp0
.(lp0
.(lp0
.(lp0
.(lp0
.(lp0
.(lp0
.(lp0
.(lp0
.(lp0
.(lp0
.(lp0
.(lp0
.(lp0
.(lp0
.(lp0
.(lp0
.(lp0
.(lp0
.(lp0
.(lp0
.(lp0
.(lp0
.(lp0
.(lp0
.(lp0
.(lp0
.(lp0
.(lp0
.(lp0
.(lp0
.(lp0
.(lp0
.(lp0
.(lp0
.(lp0
.(lp0
.(lp0
.(lp0
.(lp0
.(lp0
.(lp0
.(lp0
.(lp0
.(lp0
.(lp0
.(lp0
.(lp0
.(lp0
.(lp0
.(lp0
.(lp0
.(lp0
.(lp0
.(lp0
.(lp0
.(lp0
.(lp0
.(lp0
.(lp0
.(lp0
.(lp0
.(lp0
.(lp0
.(lp0
.(lp0
.(lp0
.(lp0
.(lp0
.(lp0
.(lp0
.(lp0
.(lp0
.(lp0
.(lp0
.(lp0
.(lp0
.(lp0
.(lp0
.(lp0
.(lp0
.(lp0
.(lp0
.(lp0
.(lp0
.(lp0
.(lp0
.(lp0
.(lp0
.(lp0
.(lp0
.(lp0
.(lp0
.(lp0
.(lp0
.(lp0
.(lp0
.(lp0
.(lp0
.(lp0
.(lp0
.(lp0
.(lp0
.(lp0
.(lp0
.(lp0
.(lp0
.(lp0
.(lp0
.(lp0
.(lp0
.(lp0
.(lp0
.(lp0
.(lp0
.(lp0
.(lp0
.(lp0
.(lp0
.(lp0
.(lp0
.(lp0
.(lp0
.(lp0
.(lp0
.(lp0
.(lp0
.(lp0
.(lp0
.(lp0
.(lp0
.(lp0
.(lp0
.(lp0
.(lp0
.(lp0
.(lp0
.(lp0
.(lp0
.(lp0
.(lp0
.(lp0
.(lp0
.(lp0
.(lp0
.(lp0
.(lp0
.(lp0
.(lp0
.(lp0
.(lp0
.(lp0
.(lp0
.(lp0
.(lp0
.(lp0
.(lp0
.(lp0
.(lp0
.(lp0
.(lp0
.(lp0
.(lp0
.(lp0
.(lp0
.(lp0
.(lp0
.(lp0
.(lp0
.(lp0
.(lp0
.(lp0
.(lp0
.(lp0
.(lp0
.(lp0
.(lp0
.(lp0
.(lp0
.(lp0
.(lp0
.(lp0
.(lp0
.(lp0
.(lp0
.(lp0
.(lp0
.(lp0
.(lp0
.(lp0
.(lp0
.(lp0
.(lp0
.(lp0
.(lp0
.(lp0
.(lp0
.(lp0
.(lp0
.(lp0
.(lp0
.(lp0
.(lp0
.(lp0
.(lp0
.(lp0
.(lp0
.(lp0
.(lp0
.(lp0
.(lp0
.(lp0
.(lp0
.(lp0
.(lp0
.(lp0
.(lp0
.(lp0
.(lp0
.(lp0
.(lp0
.(lp0
.(lp0
.(lp0
.(lp0
.(lp0
.(lp0
.(lp0
.(lp0
.(lp0
.(lp0
.(lp0
.(lp0
.(lp0
.(lp0
.(lp0
.(lp0
.(lp0
.(lp0
.(lp0
.(lp0
.(lp0
.(lp0
.(lp0
.(lp0
.(lp0
.(lp0
.(lp0
.(lp0
.(lp0
.(lp0
.(lp0
.(lp0
.(lp0
.(lp0
.(lp0
.(lp0
.(lp0
.(lp0
.(lp0
.(lp0
.(lp0
.(lp0
.(lp0
.(lp0
.(lp0
.(lp0
.(lp0
.(lp0
.(lp0
.(lp0
.(lp0
.(lp0
.(lp0
.(lp0
.(lp0
.(lp0
.(lp0
.(lp0
.(lp0
.(lp0
.(lp0
.(lp0
.(lp0
.(lp0
.(lp0
.(lp0
.(lp0
.(lp0
.(lp0
.(lp0
.(lp0
.(lp0
.(lp0
.(lp0
.(lp0
.(lp0
.(lp0
.(lp0
.(lp0
.(lp0
.(lp0
.(lp0
.(lp0
.(lp0
.(lp0
.(lp0
.(lp0
.(lp0
.(lp0
.(lp0
.(lp0
.(lp0
.(lp0
.(lp0
.(lp0
.(lp0
.(lp0
.(lp0
.(lp0
.(lp0
.(lp0
.(lp0
.(lp0
.(lp0
.(lp0
.(lp0
.(lp0
.(lp0
.(lp0
.(lp0
.(lp0
.(lp0
.(lp0
.(lp0
.(lp0
.(lp0
.(lp0
.(lp0
.(lp0
.(lp0
.(lp0
.(lp0
.(lp0
.(lp0
.(lp0
.(lp0
.(lp0
.(lp0
.(lp0
.(lp0
.(lp0
.(lp0
.(lp0
.(lp0
.(lp0
.(lp0
.(lp0
.(lp0
.(lp0
.(lp0
.(lp0
.(lp0
.(lp0
.(lp0
.(lp0
.(lp0
.(lp0
.(lp0
.(lp0
.(lp0
.(lp0
.(lp0
.(lp0
.(lp0
.(lp0
.(lp0
.(lp0
.(lp0
.(lp0
.(lp0
.(lp0
.(lp0
.(lp0
.(lp0
.(lp0
.(lp0
.(lp0
.(lp0
.(lp0
.(lp0
.(lp0
.(lp0
.(lp0
.(lp0
.(lp0
.(lp0
.(lp0
.(lp0
.(lp0
.(lp0
.(lp0
.(lp0
.(lp0
.(lp0
.(lp0
.(lp0
.(lp0
.(lp0
.(lp0
.(lp0
.(lp0
.(lp0
.(lp0
.(lp0
.(lp0
.(lp0
.(lp0
.(lp0
.(lp0
.(lp0
.(lp0
.(lp0
.(lp0
.(lp0
.(lp0
.(lp0
.(lp0
.(lp0
.(lp0
.(lp0
.(lp0
.(lp0
.(lp0
.(lp0
.(lp0
.(lp0
.(lp0
.(lp0
.(lp0
.(lp0
.(lp0
.(lp0
.(lp0
.(lp0
.(lp0
.(lp0
.(lp0
.(lp0
.(lp0
.(lp0
.(lp0
.(lp0
.(lp0
.(lp0
.(lp0
.(lp0
.(lp0
.(lp0
.(lp0
.(lp0
.(lp0
.(lp0
.(lp0
.(lp0
.(lp0
.(lp0
.(lp0
.(lp0
.(lp0
.(lp0
.(lp0
.(lp0
.(lp0
.(lp0
.(lp0
.(lp0
.(lp0
.(lp0
.(lp0
.(lp0
.(lp0
.(lp0
.(lp0
.(lp0
.(lp0
.(lp0
.(lp0
.(lp0
.(lp0
.(lp0
.(lp0
.(lp0
.(lp0
.(lp0
.(lp0
.(lp0
.(lp0
.(lp0
.(lp0
.(lp0
.(lp0
.(lp0
.(lp0
.(lp0
.(lp0
.(lp0
.(lp0
.(lp0
.(lp0
.(lp0
.(lp0
.(lp0
.(lp0
.(lp0
.(lp0
.(lp0
.(lp0
.(lp0
.(lp0
.(lp0
.(lp0
.(lp0
.(lp0
.(lp0
.(lp0
.(lp0
.(lp0
.(lp0
.(lp0
.(lp0
.(lp0
.(lp0
.(lp0
.(lp0
.(lp0
.(lp0
.(lp0
.(lp0
.(lp0
.(lp0
.(lp0
.(lp0
.(lp0
.(lp0
.(lp0
.(lp0
.(lp0
.(lp0
.(lp0
.(lp0
.(lp0
.(lp0
.(lp0
.(lp0
.(lp0
.(lp0
.(lp0
.(lp0
.(lp0
.(lp0
.(lp0
.(lp0
.(lp0
.(lp0
.(lp0
.(lp0
.(lp0
.(lp0
.(lp0
.(lp0
.(lp0
.(lp0
.(lp0
.(lp0
.(lp0
.(lp0
.(lp0
.(lp0
.(lp0
.(lp0
.(lp0
.(lp0
.(lp0
.(lp0
.(lp0
.(lp0
.(lp0
.(lp0
.(lp0
.(lp0
.(lp0
.(lp0
.(lp0
.(lp0
.(lp0
.(lp0
.(lp0
.(lp0
.(lp0
.(lp0
.(lp0
.(lp0
.(lp0
.(lp0
.(lp0
.(lp0
.(lp0
.(lp0
.(lp0
.(lp0
.(lp0
.(lp0
.(lp0
.(lp0
.(lp0
.(lp0
.(lp0
.(lp0
.(lp0
.(lp0
.(lp0
.(lp0
.(lp0
.(lp0
.(lp0
.(lp0
.(lp0
.(lp0
.(lp0
.(lp0
.(lp0
.(lp0
.(lp0
.(lp0
.(lp0
.(lp0
.(lp0
.(lp0
.(lp0
.(lp0
.(lp0
.(lp0
.(lp0
.(lp0
.(lp0
.(lp0
.(lp0
.(lp0
.(lp0
.(lp0
.(lp0
.(lp0
.(lp0
.(lp0
.(lp0
.(lp0
.(lp0
.(lp0
.(lp0
.(lp0
.(lp0
.(lp0
.(lp0
.(lp0
.(lp0
.(lp0
.(lp0
.(lp0
.(lp0
.(lp0
.(lp0
.(lp0
.(lp0
.(lp0
.(lp0
.(lp0
.(lp0
.(lp0
.(lp0
.(lp0
.(lp0
.(lp0
.(lp0
.(lp0
.(lp0
.(lp0
.(lp0
.(lp0
.(lp0
.(lp0
.(lp0
.(lp0
.(lp0
.(lp0
.(lp0
.(lp0
.(lp0
.(lp0
.(lp0
.(lp0
.(lp0
.(lp0
.(lp0
.(lp0
.(lp0
.(lp0
.(lp0
.(lp0
.(lp0
.(lp0
.(lp0
.(lp0
.(lp0
.(lp0
.(lp0
.(lp0
.(lp0
.(lp0
.(lp0
.(lp0
.(lp0
.(lp0
.(lp0
.(lp0
.(lp0
.(lp0
.(lp0
.(lp0
.(lp0
.(lp0
.(lp0
.(lp0
.(lp0
.(lp0
.(lp0
.(lp0
.(lp0
.(lp0
.(lp0
.(lp0
.(lp0
.(lp0
.(lp0
.(lp0
.(lp0
.(lp0
.(lp0
.(lp0
.(lp0
.(lp0
.(lp0
.(lp0
.(lp0
.(lp0
.(lp0
.(lp0
.(lp0
.(lp0
.(lp0
.(lp0
.(lp0
.(lp0
.(lp0
.(lp0
.(lp0
.(lp0
.(lp0
.(lp0
.(lp0
.(lp0
.(lp0
.(lp0
.(lp0
.(lp0
.(lp0
.(lp0
.(lp0
.(lp0
.(lp0
.(lp0
.(lp0
.(lp0
.(lp0
.(lp0
.(lp0
.(lp0
.(lp0
.(lp0
.(lp0
.(lp0
.(lp0
.(lp0
.(lp0
.(lp0
.(lp0
.(lp0
.(lp0
.(lp0
.(lp0
.(lp0
.(lp0
.(lp0
.(lp0
.(lp0
.(lp0
.(lp0
.(lp0
.(lp0
.(lp0
.(lp0
.(lp0
.(lp0
.(lp0
.(lp0
.(lp0
.(lp0
.(lp0
.(lp0
.(lp0
.(lp0
.(lp0
.(lp0
.(lp0
.(lp0
.(lp0
.(lp0
.(lp0
.(lp0
.(lp0
.(lp0
.(lp0
.(lp0
.(lp0
.(lp0
.(lp0
.(lp0
.(lp0
.(lp0
.(lp0
.(lp0
.(lp0
.(lp0
.(lp0
.(lp0
.(lp0
.(lp0
.(lp0
.(lp0
.(lp0
.(lp0
.(lp0
.(lp0
.(lp0
.(lp0
.(lp0
.(lp0
.(lp0
.(lp0
.(lp0
.(lp0
.(lp0
.(lp0
.(lp0
.(lp0
.(lp0
.(lp0
.(lp0
.(lp0
.(lp0
.(lp0
.(lp0
.(lp0
.(lp0
.(lp0
.(lp0
.(lp0
.(lp0
.(lp0
.(lp0
.(lp0
.(lp0
.(lp0
.(lp0
.(lp0
.(lp0
.(lp0
.(lp0
.(lp0
.(lp0
.(lp0
.(lp0
.(lp0
.(lp0
.(lp0
.(lp0
.(lp0
(lp1
S'saveWebContents'
p2
aS'160924'
p3
aa.(lp0
.(lp0
.(lp0
.(lp0
.(lp0
.(lp0
.(lp0
.(lp0
.(lp0
.(lp0
.(lp0
.(lp0
.(lp0
.(lp0
.(lp0
.(lp0
.(lp0
.(lp0
.(lp0
.(lp0
.(lp0
.(lp0
.(lp0
.(lp0
.(lp0
.(lp0
.(lp0
.(lp0
.(lp0
.(lp0
.(lp0
.(lp0
.(lp0
.(lp0
.(lp0
.(lp0
.(lp0
.(lp0
.(lp0
.(lp0
.(lp0
.(lp0
.(lp0
.(lp0
.(lp0
.(lp0
.(lp0
.(lp0
.(lp0
.(lp0
.(lp0
.(lp0
.(lp0
.(lp0
.(lp0
.(lp0
.(lp0
.(lp0
.(lp0
.(lp0
.(lp0
.(lp0
.(lp0
.(lp0
.(lp0
.(lp0
.(lp0
.(lp0
.(lp0
.(lp0
.(lp0
.(lp0
.(lp0
.(lp0
.(lp0
.(lp0
.(lp0
.(lp0
.(lp0
.(lp0
.(lp0
.(lp0
.(lp0
.(lp0
.(lp0
.(lp0
.(lp0
.(lp0
.(lp0
.(lp0
.(lp0
.(lp0
.(lp0
.(lp0
.(lp0
.(lp0
.(lp0
.(lp0
.(lp0
.(lp0
.(lp0
.(lp0
.(lp0
.(lp0
.(lp0
.(lp0
.(lp0
.(lp0
.(lp0
.(lp0
.(lp0
.(lp0
.(lp0
.(lp0
.(lp0
.(lp0
.(lp0
.(lp0
.(lp0
.(lp0
.(lp0
.(lp0
.(lp0
.(lp0
.(lp0
.(lp0
.(lp0
.(lp0
.(lp0
.(lp0
.(lp0
.(lp0
.(lp0
.(lp0
.(lp0
.(lp0
.(lp0
.(lp0
.(lp0
.(lp0
.(lp0
.(lp0
.(lp0
.(lp0
.(lp0
.(lp0
.(lp0
.(lp0
.(lp0
.(lp0
.(lp0
.(lp0
.(lp0
.(lp0
.(lp0
.(lp0
.(lp0
.(lp0
.(lp0
.(lp0
.(lp0
.(lp0
.(lp0
.(lp0
.(lp0
.(lp0
.(lp0
.(lp0
.(lp0
.(lp0
.(lp0
.(lp0
.(lp0
.(lp0
.(lp0
.(lp0
.(lp0
.(lp0
.(lp0
.(lp0
.(lp0
.(lp0
.(lp0
.(lp0
.(lp0
.(lp0
.(lp0
.(lp0
.(lp0
.(lp0
.(lp0
.(lp0
.(lp0
.(lp0
.(lp0
.(lp0
.(lp0
.(lp0
.(lp0
.(lp0
.(lp0
.(lp0
.(lp0
.(lp0
.(lp0
.(lp0
.(lp0
.(lp0
.(lp0
.(lp0
.(lp0
.(lp0
.(lp0
.(lp0
.(lp0
.(lp0
.(lp0
.(lp0
.(lp0
.(lp0
.(lp0
.(lp0
.(lp0
.(lp0
.(lp0
.(lp0
.(lp0
.(lp0
.(lp0
.(lp0
.(lp0
.(lp0
.(lp0
.(lp0
.(lp0
.(lp0
.(lp0
.(lp0
.(lp0
.(lp0
.(lp0
.(lp0
.(lp0
.(lp0
.(lp0
.(lp0
.(lp0
.(lp0
.(lp0
.(lp0
.(lp0
.(lp0
.(lp0
.(lp0
.(lp0
.(lp0
.(lp0
.(lp0
.(lp0
.(lp0
.(lp0
.(lp0
.(lp0
.(lp0
.(lp0
.(lp0
.(lp0
.(lp0
.(lp0
.(lp0
.(lp0
.(lp0
.(lp0
.(lp0
.(lp0
.(lp0
.(lp0
.(lp0
.(lp0
.(lp0
.(lp0
.(lp0
.(lp0
.(lp0
.(lp0
.(lp0
.(lp0
.(lp0
.(lp0
.(lp0
.(lp0
.(lp0
.(lp0
.(lp0
.(lp0
.(lp0
.(lp0
.(lp0
.(lp0
.(lp0
.(lp0
.(lp0
.(lp0
.(lp0
.(lp0
.(lp0
.(lp0
.(lp0
.(lp0
.(lp0
.(lp0
.(lp0
.(lp0
.(lp0
.(lp0
.(lp0
.(lp0
.(lp0
.(lp0
.(lp0
.(lp0
.(lp0
.(lp0
.(lp0
.(lp0
.(lp0
.(lp0
.(lp0
.(lp0
.(lp0
.(lp0
.(lp0
.(lp0
.(lp0
.(lp0
.(lp0
.(lp0
.(lp0
.(lp0
.(lp0
.(lp0
.(lp0
.(lp0
.(lp0
.(lp0
.(lp0
.(lp0
.(lp0
.(lp0
.(lp0
.(lp0
.(lp0
.(lp0
.(lp0
.(lp0
.(lp0
.(lp0
.(lp0
.(lp0
.(lp0
.(lp0
.(lp0
.(lp0
.(lp0
.(lp0
.(lp0
.(lp0
.(lp0
.(lp0
.(lp0
.(lp0
.(lp0
.(lp0
.(lp0
.(lp0
.(lp0
.(lp0
.(lp0
.(lp0
.(lp0
.(lp0
.(lp0
.(lp0
.(lp0
.(lp0
.(lp0
.(lp0
.(lp0
.(lp0
.(lp0
.(lp0
.(lp0
.(lp0
.(lp0
.(lp0
.(lp0
.(lp0
.(lp0
.(lp0
.(lp0
.(lp0
.(lp0
.(lp0
.(lp0
.(lp0
.(lp0
.(lp0
.(lp0
.(lp0
.(lp0
.(lp0
.(lp0
.(lp0
.(lp0
.(lp0
.(lp0
.(lp0
.(lp0
.(lp0
.(lp0
.(lp0
.(lp0
.(lp0
.(lp0
.(lp0
.(lp0
.(lp0
.(lp0
.(lp0
.(lp0
.(lp0
.(lp0
.(lp0
.(lp0
.(lp0
.(lp0
.(lp0
.(lp0
.(lp0
.(lp0
.(lp0
.(lp0
.(lp0
.(lp0
.(lp0
.(lp0
.(lp0
.(lp0
.(lp0
.(lp0
.(lp0
.(lp0
.(lp0
.(lp0
.(lp0
.(lp0
.(lp0
.(lp0
.(lp0
.(lp0
.(lp0
.(lp0
.(lp0
.(lp0
.(lp0
.(lp0
.(lp0
.(lp0
.(lp0
.(lp0
.(lp0
.(lp0
.(lp0
.(lp0
.(lp0
.(lp0
.(lp0
.(lp0
.(lp0
.(lp0
.(lp0
.(lp0
.(lp0
.(lp0
.(lp0
.(lp0
.(lp0
.(lp0
.(lp0
.(lp0
.(lp0
.(lp0
.(lp0
.(lp0
.(lp0
.(lp0
.(lp0
.(lp0
.(lp0
.(lp0
.(lp0
.(lp0
.(lp0
.(lp0
.(lp0
.(lp0
.(lp0
.(lp0
.(lp0
.(lp0
.(lp0
.(lp0
.(lp0
.(lp0
.(lp0
.(lp0
.(lp0
.(lp0
.(lp0
.(lp0
.(lp0
.(lp0
.(lp0
.(lp0
.(lp0
.(lp0
.(lp0
.(lp0
.(lp0
.(lp0
.(lp0
.(lp0
.(lp0
.(lp0
.(lp0
.(lp0
.(lp0
.(lp0
.(lp0
.(lp0
.(lp0
.(lp0
.(lp0
.(lp0
.(lp0
.(lp0
.(lp0
.(lp0
.(lp0
.(lp0
.(lp0
.(lp0
.(lp0
.(lp0
.(lp0
.(lp0
.(lp0
.(lp0
.(lp0
.(lp0
.(lp0
.(lp0
.(lp0
.(lp0
.(lp0
.(lp0
.(lp0
.(lp0
.(lp0
.(lp0
.(lp0
.(lp0
.(lp0
.(lp0
.(lp0
.(lp0
.(lp0
.(lp0
.(lp0
.(lp0
.(lp0
.(lp0
.(lp0
.(lp0
.(lp0
.(lp0
.(lp0
.(lp0
.(lp0
.(lp0
.(lp0
.(lp0
.(lp0
.(lp0
.(lp0
.(lp0
.(lp0
.(lp0
.(lp0
.(lp0
.(lp0
.(lp0
.(lp0
.(lp0
.(lp0
.(lp0
.(lp0
.(lp0
.(lp0
.(lp0
.(lp0
.(lp0
.(lp0
.(lp0
.(lp0
.(lp0
.(lp0
.(lp0
.(lp0
.(lp0
.(lp0
.(lp0
.(lp0
.(lp0
.(lp0
.(lp0
.(lp0
.(lp0
.(lp0
.(lp0
.(lp0
.(lp0
.(lp0
.(lp0
.(lp0
.(lp0
.(lp0
.(lp0
.(lp0
.(lp0
.(lp0
.(lp0
.(lp0
.(lp0
.(lp0
.(lp0
.(lp0
.(lp0
.(lp0
.(lp0
.(lp0
.(lp0
.(lp0
.(lp0
.(lp0
.(lp0
.(lp0
.(lp0
.(lp0
.(lp0
.(lp0
.(lp0
.(lp0
.(lp0
.(lp0
.(lp0
.(lp0
.(lp0
.(lp0
.(lp0
.(lp0
.(lp0
.(lp0
.(lp0
.(lp0
.(lp0
.(lp0
.(lp0
.(lp0
.(lp0
.(lp0
.(lp0
.(lp0
.(lp0
.(lp0
.(lp0
.(lp0
.(lp0
.(lp0
.(lp0
.(lp0
.(lp0
.(lp0
.(lp0
.(lp0
.(lp0
.(lp0
.(lp0
.(lp0
.(lp0
.(lp0
.(lp0
.(lp0
.(lp0
.(lp0
.(lp0
.(lp0
.(lp0
.(lp0
.(lp0
.(lp0
.(lp0
.(lp0
.(lp0
.(lp0
.(lp0
.(lp0
.(lp0
.(lp0
.(lp0
.(lp0
.(lp0
.(lp0
.(lp0
.(lp0
.(lp0
.(lp0
.(lp0
.(lp0
.(lp0
.(lp0
.(lp0
.(lp0
.(lp0
.(lp0
.(lp0
.(lp0
.(lp0
.(lp0
.(lp0
.(lp0
.(lp0
.(lp0
.(lp0
.(lp0
.(lp0
.(lp0
.(lp0
.(lp0
.(lp0
.(lp0
.(lp0
.(lp0
.(lp0
.(lp0
.(lp0
.(lp0
.(lp0
.(lp0
.(lp0
.(lp0
.(lp0
.(lp0
.(lp0
.(lp0
.(lp0
.(lp0
.(lp0
.(lp0
.(lp0
.(lp0
.(lp0
.(lp0
.(lp0
.(lp0
.(lp0
.(lp0
.(lp0
.(lp0
.(lp0
.(lp0
.(lp0
.(lp0
.(lp0
.(lp0
.(lp0
.(lp0
.(lp0
.(lp0
.(lp0
.(lp0
.(lp0
.(lp0
.(lp0
.(lp0
.(lp0
.(lp0
.(lp0
.(lp0
.(lp0
.(lp0
.(lp0
.(lp0
.(lp0
.(lp0
.(lp0
.(lp0
.(lp0
.(lp0
.(lp0
.(lp0
.(lp0
.(lp0
.(lp0
.(lp0
.(lp0
.(lp0
.(lp0
.(lp0
.(lp0
.(lp0
.(lp0
.(lp0
.(lp0
.(lp0
.(lp0
.(lp0
.(lp0
.(lp0
.(lp0
.(lp0
.(lp0
.(lp0
.(lp0
.(lp0
.(lp0
.(lp0
.(lp0
.(lp0
.(lp0
.(lp0
.(lp0
.(lp0
.(lp0
.(lp0
.(lp0
.(lp0
.(lp0
.(lp0
.(lp0
.(lp0
.(lp0
.(lp0
.(lp0
.(lp0
.(lp0
.(lp0
.(lp0
.(lp0
.(lp0
.(lp0
.(lp0
.(lp0
.(lp0
.(lp0
.(lp0
.(lp0
.(lp0
.(lp0
.(lp0
.(lp0
.(lp0
.(lp0
.(lp0
.(lp0
.(lp0
.(lp0
.(lp0
.(lp0
.(lp0
.(lp0
.(lp0
.(lp0
.(lp0
.(lp0
.(lp0
.(lp0
.(lp0
.(lp0
.(lp0
.(lp0
.(lp0
.(lp0
.(lp0
.(lp0
.(lp0
.(lp0
.(lp0
.(lp0
.(lp0
.(lp0
.(lp0
.(lp0
.(lp0
.(lp0
.(lp0
.(lp0
.(lp0
.(lp0
.(lp0
.(lp0
.(lp0
.(lp0
.(lp0
.(lp0
.(lp0
.(lp0
.(lp0
.(lp0
.(lp0
.(lp0
.(lp0
.(lp0
.(lp0
.(lp0
.(lp0
.(lp0
.(lp0
.(lp0
.(lp0
.(lp0
.(lp0
.(lp0
.(lp0
.(lp0
.(lp0
.(lp0
.(lp0
.(lp0
.(lp0
.(lp0
.(lp0
.(lp0
.(lp0
.(lp0
.(lp0
.(lp0
.(lp0
.(lp0
.(lp0
.(lp0
.(lp0
.(lp0
.(lp0
.(lp0
.(lp0
.(lp0
.(lp0
.(lp0
.(lp0
.(lp0
.(lp0
.(lp0
.(lp0
.(lp0
.(lp0
.(lp0
.(lp0
.(lp0
.(lp0
.(lp0
.(lp0
.(lp0
.(lp0
.(lp0
.(lp0
.(lp0
.(lp0
.(lp0
.(lp0
.(lp0
.(lp0
.(lp0
.(lp0
.(lp0
.(lp0
.(lp0
.(lp0
.(lp0
.(lp0
.(lp0
.(lp0
.(lp0
.(lp0
.(lp0
.(lp0
.(lp0
.(lp0
.(lp0
.(lp0
.(lp0
.(lp0
.(lp0
.(lp0
.(lp0
.(lp0
.(lp0
.(lp0
.(lp0
.(lp0
.(lp0
.(lp0
.(lp0
.(lp0
.(lp0
.(lp0
.(lp0
.(lp0
.(lp0
.(lp0
.(lp0
.(lp0
.(lp0
.(lp0
.(lp0
.(lp0
.(lp0
.(lp0
.(lp0
.(lp0
.(lp0
.(lp0
.(lp0
.(lp0
.(lp0
.(lp0
.(lp0
.(lp0
.(lp0
.(lp0
.(lp0
.(lp0
.(lp0
.(lp0
.(lp0
.(lp0
.(lp0
.(lp0
.(lp0
.(lp0
.(lp0
.(lp0
.(lp0
.(lp0
.(lp0
.(lp0
.(lp0
.(lp0
.(lp0
.(lp0
.(lp0
.(lp0
.(lp0
.(lp0
.(lp0
.(lp0
.(lp0
.(lp0
.(lp0
.(lp0
.(lp0
.(lp0
.(lp0
.(lp0
.(lp0
.(lp0
.(lp0
.(lp0
.(lp0
.(lp0
.(lp0
.(lp0
.(lp0
.(lp0
.(lp0
.(lp0
.(lp0
.(lp0
.(lp0
.(lp0
.(lp0
.(lp0
.(lp0
.(lp0
.(lp0
.(lp0
.(lp0
.(lp0
.(lp0
.(lp0
.(lp0
.(lp0
.(lp0
.(lp0
.(lp0
.(lp0
.(lp0
.(lp0
.(lp0
.(lp0
.(lp0
.(lp0
.(lp0
.(lp0
.(lp0
.(lp0
.(lp0
.(lp0
.(lp0
.(lp0
.(lp0
.(lp0
.(lp0
.(lp0
.(lp0
.(lp0
.(lp0
.(lp0
.(lp0
.(lp0
.(lp0
.(lp0
.(lp0
.(lp0
.(lp0
.(lp0
.(lp0
.(lp0
.(lp0
.(lp0
.(lp0
.(lp0
.(lp0
.(lp0
.(lp0
.(lp0
.(lp0
.(lp0
.(lp0
.(lp0
.(lp0
.(lp0
.(lp0
.(lp0
.(lp0
.(lp0
.(lp0
.(lp0
.(lp0
.(lp0
.(lp0
.(lp0
.(lp0
.(lp0
.(lp0
.(lp0
.(lp0
.(lp0
.(lp0
.(lp0
.(lp0
.(lp0
.(lp0
.(lp0
.(lp0
.(lp0
.(lp0
.(lp0
.(lp0
.(lp0
.(lp0
.(lp0
.(lp0
.(lp0
.(lp0
.(lp0
.(lp0
.(lp0
.(lp0
.(lp0
.(lp0
.(lp0
.(lp0
.(lp0
.(lp0
.(lp0
.(lp0
.(lp0
.(lp0
.(lp0
.(lp0
.(lp0
.(lp0
.(lp0
.(lp0
.(lp0
.(lp0
.(lp0
.(lp0
.(lp0
.(lp0
.(lp0
.(lp0
.(lp0
.(lp0
.(lp0
.(lp0
.(lp0
.(lp0
.(lp0
.(lp0
.(lp0
.(lp0
.(lp0
.(lp0
.(lp0
.(lp0
.(lp0
.(lp0
.(lp0
.(lp0
.(lp0
.(lp0
.(lp0
.(lp0
.(lp0
.(lp0
.(lp0
.(lp0
.(lp0
.(lp0
.(lp0
.(lp0
.(lp0
.(lp0
.(lp0
.(lp0
.(lp0
.(lp0
.(lp0
.(lp0
.(lp0
.(lp0
.(lp0
.(lp0
.(lp0
.(lp0
.(lp0
.(lp0
.(lp0
.(lp0
.(lp0
.(lp0
.(lp0
.(lp0
.(lp0
.(lp0
.(lp0
.(lp0
.(lp0
.(lp0
.(lp0
.(lp0
.(lp0
.(lp0
.(lp0
.(lp0
.(lp0
.(lp0
.(lp0
.(lp0
.(lp0
.(lp0
.(lp0
.(lp0
.(lp0
.(lp0
.(lp0
.(lp0
.(lp0
.(lp0
.(lp0
.(lp0
.(lp0
.(lp0
.(lp0
.(lp0
.(lp0
.(lp0
.(lp0
.(lp0
.(lp0
.(lp0
.(lp0
.(lp0
.(lp0
.(lp0
.(lp0
.(lp0
.(lp0
.(lp0
.(lp0
.(lp0
.(lp0
.(lp0
.(lp0
.(lp0
.(lp0
.(lp0
.(lp0
.(lp0
.(lp0
.(lp0
.(lp0
.(lp0
.(lp0
.(lp0
.(lp0
.(lp0
.(lp0
.(lp0
.(lp0
.(lp0
.(lp0
.(lp0
.(lp0
.(lp0
.(lp0
.(lp0
.(lp0
.(lp0
.(lp0
.(lp0
.(lp0
.(lp0
.(lp0
.(lp0
.(lp0
.(lp0
.(lp0
.(lp0
.(lp0
.(lp0
.(lp0
.(lp0
.(lp0
.(lp0
.(lp0
.(lp0
.(lp0
.(lp0
.(lp0
.(lp0
.(lp0
.(lp0
.(lp0
.(lp0
.(lp0
.(lp0
.(lp0
.(lp0
.(lp0
.(lp0
.(lp0
.(lp0
.(lp0
.(lp0
.(lp0
.(lp0
.(lp0
.(lp0
.(lp0
.(lp0
.(lp0
.(lp0
.(lp0
.(lp0
.(lp0
.(lp0
.(lp0
.(lp0
.(lp0
.(lp0
.(lp0
.(lp0
.(lp0
.(lp0
.(lp0
.(lp0
.(lp0
.(lp0
.(lp0
.(lp0
.(lp0
.(lp0
.(lp0
.(lp0
.(lp0
.(lp0
.(lp0
.(lp0
.(lp0
.(lp0
.(lp0
.(lp0
.(lp0
.(lp0
.(lp0
.(lp0
.(lp0
.(lp0
.(lp0
.(lp0
.(lp0
.(lp0
.(lp0
.(lp0
.(lp0
.(lp0
.(lp0
.(lp0
.(lp0
.(lp0
.(lp0
.(lp0
.(lp0
.(lp0
.(lp0
.(lp0
.(lp0
.(lp0
.(lp0
.(lp0
.(lp0
.(lp0
.(lp0
.(lp0
.(lp0
.(lp0
.(lp0
.(lp0
.(lp0
.(lp0
.(lp0
.(lp0
.(lp0
.(lp0
.(lp0
.(lp0
.(lp0
.(lp0
.(lp0
.(lp0
.(lp0
.(lp0
.(lp0
.(lp0
.(lp0
.(lp0
.(lp0
.(lp0
.(lp0
.(lp0
.(lp0
.(lp0
.(lp0
.(lp0
.(lp0
.(lp0
.(lp0
.(lp0
.(lp0
.(lp0
.(lp0
.(lp0
.(lp0
.(lp0
.(lp0
.(lp0
.(lp0
.(lp0
.(lp0
.(lp0
.(lp0
.(lp0
.(lp0
.(lp0
.(lp0
.(lp0
.(lp0
.(lp0
.(lp0
.(lp0
.(lp0
.(lp0
.(lp0
.(lp0
.(lp0
.(lp0
.(lp0
.(lp0
.(lp0
.(lp0
.(lp0
.(lp0
.(lp0
.(lp0
.(lp0
.(lp0
.(lp0
.(lp0
.(lp0
.(lp0
.(lp0
.(lp0
.(lp0
.(lp0
.(lp0
.(lp0
.(lp0
.(lp0
.(lp0
.(lp0
.(lp0
.(lp0
.(lp0
.(lp0
.(lp0
.(lp0
.(lp0
.(lp0
.(lp0
.(lp0
.(lp0
.(lp0
.(lp0
.(lp0
.(lp0
.(lp0
.(lp0
.(lp0
.(lp0
.(lp0
.(lp0
.(lp0
.(lp0
.(lp0
.(lp0
.(lp0
.(lp0
.(lp0
.(lp0
.(lp0
.(lp0
.(lp0
.(lp0
.(lp0
.(lp0
.(lp0
.(lp0
.(lp0
.(lp0
.(lp0
.(lp0
.(lp0
.(lp0
.(lp0
.(lp0
.(lp0
.(lp0
.(lp0
.(lp0
.(lp0
.(lp0
.(lp0
.(lp0
.(lp0
.(lp0
.(lp0
.(lp0
.(lp0
.(lp0
.(lp0
.(lp0
.(lp0
.(lp0
.(lp0
.(lp0
.(lp0
.(lp0
.(lp0
.(lp0
.(lp0
.(lp0
.(lp0
.(lp0
.(lp0
.(lp0
.(lp0
.(lp0
.(lp0
.(lp0
.(lp0
.(lp0
.(lp0
.(lp0
.(lp0
.(lp0
.(lp0
.(lp0
.(lp0
.(lp0
.(lp0
.(lp0
.(lp0
.(lp0
.(lp0
.(lp0
.(lp0
.(lp0
.(lp0
.(lp0
.(lp0
.(lp0
.(lp0
.(lp0
.(lp0
.(lp0
.(lp0
.(lp0
.(lp0
.(lp0
.(lp0
.(lp0
.(lp0
.(lp0
.(lp0
.(lp0
.(lp0
.(lp0
.(lp0
.(lp0
.(lp0
.(lp0
.(lp0
.(lp0
.(lp0
.(lp0
.(lp0
.(lp0
.(lp0
.(lp0
.(lp0
.(lp0
.(lp0
.(lp0
.(lp0
.(lp0
.(lp0
.(lp0
.(lp0
.(lp0
.(lp0
.(lp0
.(lp0
.(lp0
.(lp0
.(lp0
.(lp0
.(lp0
.(lp0
.(lp0
.(lp0
.(lp0
.(lp0
.(lp0
.(lp0
.(lp0
.(lp0
.(lp0
.(lp0
.(lp0
.(lp0
.(lp0
.(lp0
.(lp0
.(lp0
.(lp0
.(lp0
.(lp0
.(lp0
.(lp0
.(lp0
.(lp0
.(lp0
.(lp0
.(lp0
.(lp0
.(lp0
.(lp0
.(lp0
.(lp0
.(lp0
.(lp0
.(lp0
.(lp0
.(lp0
.(lp0
.(lp0
.(lp0
.(lp0
.(lp0
.(lp0
.(lp0
.(lp0
.(lp0
.(lp0
.(lp0
.(lp0
.(lp0
.(lp0
.(lp0
.(lp0
.(lp0
.(lp0
.(lp0
.(lp0
.(lp0
.(lp0
.(lp0
.(lp0
.(lp0
.(lp0
.(lp0
.(lp0
.(lp0
.(lp0
.(lp0
.(lp0
.(lp0
.(lp0
.(lp0
.(lp0
.(lp0
.(lp0
.(lp0
.(lp0
.(lp0
.(lp0
.(lp0
.(lp0
.(lp0
.(lp0
.(lp0
.(lp0
.(lp0
.(lp0
.(lp0
.(lp0
.(lp0
.(lp0
.(lp0
.(lp0
.(lp0
.(lp0
.(lp0
.(lp0
.(lp0
.(lp0
.(lp0
.(lp0
.(lp0
.(lp0
.(lp0
.(lp0
.(lp0
.(lp0
.(lp0
.(lp0
.(lp0
.(lp0
.(lp0
.(lp0
.(lp0
.(lp0
.(lp0
.(lp0
.(lp0
.(lp0
.(lp0
.(lp0
.(lp0
.(lp0
.(lp0
.(lp0
.(lp0
.(lp0
.(lp0
.(lp0
.(lp0
.(lp0
.(lp0
.(lp0
.(lp0
.(lp0
.(lp0
.(lp0
.(lp0
.(lp0
.(lp0
.(lp0
.(lp0
.(lp0
.(lp0
.(lp0
.(lp0
.(lp0
.(lp0
.(lp0
.(lp0
.(lp0
.(lp0
.(lp0
.(lp0
.(lp0
.(lp0
.(lp0
.(lp0
.(lp0
.(lp0
.(lp0
.(lp0
.(lp0
.(lp0
.(lp0
.(lp0
.(lp0
.(lp0
.(lp0
.(lp0
.(lp0
.(lp0
.(lp0
.(lp0
.(lp0
.(lp0
.(lp0
.(lp0
.(lp0
.(lp0
.(lp0
.(lp0
.(lp0
.(lp0
.(lp0
.(lp0
.(lp0
.(lp0
.(lp0
.(lp0
.(lp0
.(lp0
.(lp0
.(lp0
.(lp0
.(lp0
.(lp0
.(lp0
.(lp0
.(lp0
.(lp0
.(lp0
.(lp0
.(lp0
.(lp0
.(lp0
.(lp0
.(lp0
.(lp0
.(lp0
.(lp0
.(lp0
.(lp0
.(lp0
.(lp0
.(lp0
.(lp0
.(lp0
.(lp0
.(lp0
.(lp0
.(lp0
.(lp0
.(lp0
.(lp0
.(lp0
.(lp0
.(lp0
.(lp0
.(lp0
.(lp0
.(lp0
.(lp0
.(lp0
.(lp0
.(lp0
.(lp0
.(lp0
.(lp0
.(lp0
.(lp0
.(lp0
.(lp0
.(lp0
.(lp0
.(lp0
.(lp0
.(lp0
.(lp0
.(lp0
.(lp0
.(lp0
.(lp0
.(lp0
.(lp0
.(lp0
.(lp0
.(lp0
.(lp0
.(lp0
.(lp0
.(lp0
.(lp0
.(lp0
.(lp0
.(lp0
.(lp0
.(lp0
.(lp0
.(lp0
.(lp0
.(lp0
.(lp0
.(lp0
.(lp0
.(lp0
.(lp0
.(lp0
.(lp0
.(lp0
.(lp0
.(lp0
.(lp0
.(lp0
.(lp0
.(lp0
.(lp0
.(lp0
.(lp0
.(lp0
.(lp0
.(lp0
.(lp0
.(lp0
.(lp0
.(lp0
.(lp0
.(lp0
.(lp0
.(lp0
.(lp0
.(lp0
.(lp0
.(lp0
.(lp0
.(lp0
.(lp0
.(lp0
.(lp0
.(lp0
.(lp0
.(lp0
.(lp0
.(lp0
.(lp0
.(lp0
.(lp0
.(lp0
.(lp0
.(lp0
.(lp0
.(lp0
.(lp0
.(lp0
.(lp0
.(lp0
.(lp0
.(lp0
.(lp0
.(lp0
.(lp0
.(lp0
.(lp0
.(lp0
.(lp0
.(lp0
.(lp0
.(lp0
.(lp0
.(lp0
.(lp0
.(lp0
.(lp0
.(lp0
.(lp0
.(lp0
.(lp0
.(lp0
.(lp0
.(lp0
.(lp0
.(lp0
.(lp0
.(lp0
.(lp0
.(lp0
.(lp0
.(lp0
.(lp0
.(lp0
.(lp0
.(lp0
.(lp0
.(lp0
.(lp0
.(lp0
.(lp0
.(lp0
.(lp0
.(lp0
.(lp0
.(lp0
.(lp0
.(lp0
.(lp0
.(lp0
.(lp0
.(lp0
.(lp0
.(lp0
.(lp0
.(lp0
.(lp0
.(lp0
.(lp0
.(lp0
.(lp0
.(lp0
.(lp0
.(lp0
.(lp0
.(lp0
.(lp0
.(lp0
.(lp0
.(lp0
.(lp0
.(lp0
.(lp0
.(lp0
.(lp0
.(lp0
.(lp0
.(lp0
.(lp0
.(lp0
.(lp0
.(lp0
.(lp0
.(lp0
.(lp0
.(lp0
.(lp0
.(lp0
.(lp0
.(lp0
.(lp0
.(lp0
.(lp0
.(lp0
.(lp0
.(lp0
.(lp0
.(lp0
.(lp0
.(lp0
.(lp0
.(lp0
.(lp0
.(lp0
.(lp0
.(lp0
.(lp0
.(lp0
.(lp0
.(lp0
.(lp0
.(lp0
.(lp0
.(lp0
.(lp0
.(lp0
.(lp0
.(lp0
.(lp0
.(lp0
.(lp0
.(lp0
.(lp0
.(lp0
.(lp0
.(lp0
.(lp0
.(lp0
.(lp0
.(lp0
.(lp0
.(lp0
.(lp0
.(lp0
.(lp0
.(lp0
.(lp0
.(lp0
.(lp0
.(lp0
.(lp0
.(lp0
.(lp0
.(lp0
.(lp0
.(lp0
.(lp0
.(lp0
.(lp0
.(lp0
.(lp0
.(lp0
.(lp0
.(lp0
.(lp0
.(lp0
.(lp0
.(lp0
.(lp0
.(lp0
.(lp0
.(lp0
.(lp0
.(lp0
.(lp0
.(lp0
.(lp0
.(lp0
.(lp0
.(lp0
.(lp0
.(lp0
.(lp0
.(lp0
.(lp0
.(lp0
.(lp0
.(lp0
.(lp0
.(lp0
.(lp0
.(lp0
.(lp0
.(lp0
.(lp0
.(lp0
.(lp0
.(lp0
.(lp0
.(lp0
.(lp0
.(lp0
.(lp0
.(lp0
.(lp0
.(lp0
.(lp0
.(lp0
.(lp0
.(lp0
.(lp0
.(lp0
.(lp0
.(lp0
.(lp0
.(lp0
.(lp0
.(lp0
.(lp0
.(lp0
.(lp0
.(lp0
.(lp0
.(lp0
.(lp0
.(lp0
.(lp0
.(lp0
.(lp0
.(lp0
.(lp0
.(lp0
.(lp0
.(lp0
.(lp0
.(lp0
.(lp0
.(lp0
.(lp0
.(lp0
.(lp0
.(lp0
.(lp0
.(lp0
.(lp0
.(lp0
.(lp0
.(lp0
.(lp0
.(lp0
.(lp0
.(lp0
.(lp0
.(lp0
.(lp0
.(lp0
.(lp0
.(lp0
.(lp0
.(lp0
.(lp0
.(lp0
.(lp0
.(lp0
.(lp0
.(lp0
.(lp0
.(lp0
.(lp0
.(lp0
.(lp0
.(lp0
.(lp0
.(lp0
.(lp0
.(lp0
.(lp0
.(lp0
.(lp0
.(lp0
.(lp0
.(lp0
.(lp0
.(lp0
.(lp0
.(lp0
.(lp0
.(lp0
.(lp0
.(lp0
.(lp0
.(lp0
.(lp0
.(lp0
.(lp0
.(lp0
.(lp0
.(lp0
.(lp0
.(lp0
.(lp0
.(lp0
.(lp0
.(lp0
.(lp0
.(lp0
.(lp0
.(lp0
.(lp0
.(lp0
.(lp0
.(lp0
.(lp0
.(lp0
.(lp0
.(lp0
.(lp0
.(lp0
.(lp0
.(lp0
.(lp0
.(lp0
.(lp0
.(lp0
.(lp0
.(lp0
.(lp0
.(lp0
.(lp0
.(lp0
.(lp0
(lp1
S'saveWebContents'
p2
aS'377016'
p3
aa.(lp0
(lp1
S'saveWebContents'
p2
aS'378006'
p3
aa.(lp0
.(lp0
.(lp0
(lp1
S'saveWebContents'
p2
aS'486001'
p3
aa.(lp0
(lp1
S'saveWebContents'
p2
aS'486002'
p3
aa.(lp0
.(lp0
.(lp0
(lp1
S'saveWebContents'
p2
aS'539001'
p3
aa.(lp0
(lp1
S'saveWebContents'
p2
aS'539002'
p3
aa.(lp0
.(lp0
.(lp0
.(lp0
.(lp0
(lp1
S'saveWebContents'
p2
aS'457001'
p3
aa.(lp0
.(lp0
.(lp0
.(lp0
.(lp0
.(lp0
.(lp0
.(lp0
.(lp0
.(lp0
.(lp0
.(lp0
.(lp0
.(lp0
.(lp0
.(lp0
.(lp0
.(lp0
.(lp0
.(lp0
.(lp0
.(lp0
.(lp0
.(lp0
.(lp0
.(lp0
.(lp0
.(lp0
.(lp0
.(lp0
.(lp0
.(lp0
.(lp0
.(lp0
.(lp0
.(lp0
.(lp0
.(lp0
.(lp0
.(lp0
.(lp0
.(lp0
.(lp0
.(lp0
.(lp0
.(lp0
.(lp0
.(lp0
(lp1
S'getYearlyContent'
p2
aS'160416'
p3
aa.(lp0
.(lp0
.(lp0
.(lp0
.(lp0
.(lp0
(lp1
S'saveWebContents'
p2
aS'539003'
p3
aa.(lp0
.(lp0
.(lp0
.(lp0
.(lp0
.(lp0
.(lp0
.(lp0
(lp1
S'saveWebContents'
p2
aS'460010'
p3
aa.(lp0
.(lp0
.(lp0
.(lp0
(lp1
S'saveWebContents'
p2
aS'161210'
p3
aa.(lp0
.(lp0
.(lp0
.(lp0
.(lp0
.(lp0
.(lp0
.(lp0
.(lp0
.(lp0
.(lp0
.(lp0
.(lp0
.(lp0
.(lp0
.(lp0
.(lp0
.(lp0
.(lp0
(lp1
S'saveWebContents'
p2
aS'000990'
p3
aa.(lp0
.(lp0
.(lp0
.(lp0
.(lp0
.(lp0
(lp1
S'saveWebContents'
p2
aS'001691'
p3
aa.(lp0
.(lp0
.(lp0
(lp1
S'saveWebContents'
p2
aS'000989'
p3
aa.(lp0
.(lp0
.(lp0
.(lp0
.(lp0
.(lp0
.(lp0
.(lp0
.(lp0
.(lp0
.(lp0
.(lp0
.(lp0
.(lp0
.(lp0
.(lp0
.(lp0
.(lp0
.(lp0
.(lp0
.(lp0
.(lp0
.(lp0
.(lp0
.(lp0
.(lp0
.(lp0
.(lp0
.(lp0
.(lp0
.(lp0
.(lp0
.(lp0
.(lp0
.(lp0
.(lp0
.(lp0
.(lp0
(lp1
S'saveWebContents'
p2
aS'002230'
p3
aa.(lp0
.(lp0
.(lp0
.(lp0
.(lp0
.(lp0
.(lp0
.(lp0
.(lp0
.(lp0
.(lp0
.(lp0
.(lp0
.(lp0
.(lp0
.(lp0
.(lp0
.(lp0
.(lp0
.(lp0
.(lp0
.(lp0
(lp1
S'saveWebContents'
p2
aS'002380'
p3
aa.(lp0
.(lp0
.(lp0
.(lp0
.(lp0
.(lp0
.(lp0
.(lp0
.(lp0
.(lp0
.(lp0
.(lp0
.(lp0
.(lp0
.(lp0
(lp1
S'saveWebContents'
p2
aS'002379'
p3
aa.(lp0
.(lp0
.(lp0
.(lp0
.(lp0
.(lp0
.(lp0
.(lp0
(lp1
S'saveWebContents'
p2
aS'003245'
p3
aa.(lp0
.(lp0
.(lp0
.(lp0
.(lp0
.(lp0
.(lp0
.(lp0
.(lp0
.(lp0
.(lp0
.(lp0
.(lp0
.(lp0
.(lp0
(lp1
S'saveWebContents'
p2
aS'003244'
p3
aa.(lp0
.(lp0
.(lp0
.(lp0
.(lp0
.(lp0
.(lp0
.(lp0
.(lp0
.(lp0
.(lp0
.(lp0
.(lp0
.(lp0
.(lp0
.(lp0
.(lp0
.(lp0
.(lp0
.(lp0
.(lp0
.(lp0
.(lp0
.(lp0
.(lp0
.(lp0
.(lp0
.(lp0
.(lp0
.(lp0
.(lp0
.(lp0
.(lp0
.(lp0
.(lp0
.(lp0
.(lp0
.(lp0
.(lp0
.(lp0
.(lp0
.(lp0
.(lp0
.(lp0
.(lp0
.(lp0
.(lp0
.(lp0
.(lp0
.(lp0
.(lp0
.(lp0
.(lp0
.(lp0
.(lp0
.(lp0
.(lp0
.(lp0
.(lp0
.(lp0
.(lp0
(lp1
S'saveWebContents'
p2
aS'000934'
p3
aa.(lp0
.(lp0
.(lp0
.(lp0
(lp1
S'saveWebContents'
p2
aS'003243'
p3
aa.(lp0
.(lp0
.(lp0
.(lp0
.(lp0
(lp1
S'saveWebContents'
p2
aS'002892'
p3
aa.(lp0
.(lp0
.(lp0
.(lp0
.(lp0
.(lp0
.(lp0
.(lp0
.(lp0
.(lp0
.(lp0
.(lp0
.(lp0
(lp1
S'saveWebContents'
p2
aS'003972'
p3
aa.(lp0
.(lp0
.(lp0
.(lp0
.(lp0
.(lp0
.(lp0
.(lp0
.(lp0
.(lp0
.(lp0
.(lp0
.(lp0
.(lp0
.(lp0
.(lp0
.(lp0
.(lp0
.(lp0
.(lp0
.(lp0
.(lp0
.(lp0
.(lp0
.(lp0
.(lp0
.(lp0
.(lp0
.(lp0
.(lp0
.(lp0
.(lp0
.(lp0
.(lp0
.(lp0
.(lp0
.(lp0
.(lp0
.(lp0
.(lp0
.(lp0
.(lp0
.(lp0
.(lp0
.(lp0
.(lp0
.(lp0
.(lp0
(lp1
S'saveWebContents'
p2
aS'160923'
p3
aa.(lp0
.(lp0
.(lp0
.(lp0
.(lp0
.(lp0
.(lp0
.(lp0
.(lp0
.(lp0
.(lp0
.(lp0
.(lp0
.(lp0
.(lp0
.(lp0
.(lp0
.(lp0
.(lp0
.(lp0
(lp1
S'saveWebContents'
p2
aS'002891'
p3
aa.(lp0
.(lp0
.(lp0
.(lp0
.(lp0
(lp1
S'saveWebContents'
p2
aS'000988'
p3
aa.(lp0
.(lp0
.(lp0
.(lp0
.(lp0
.(lp0
.(lp0
.(lp0
.(lp0
.(lp0
.(lp0
.(lp0
.(lp0
.(lp0
.(lp0
.(lp0
.(lp0
.(lp0
.(lp0
.(lp0
.(lp0
.(lp0
.(lp0
.(lp0
(lp1
S'saveWebContents'
p2
aS'002893'
p3
aa.(lp0
.(lp0
.(lp0
.(lp0
.(lp0
.(lp0
.(lp0
.(lp0
.(lp0
.(lp0
.(lp0
.(lp0
.(lp0
.(lp0
.(lp0
.(lp0
.(lp0
.(lp0
.(lp0
(lp1
S'saveWebContents'
p2
aS'001668'
p3
aa.(lp0
.(lp0
.(lp0
.(lp0
.(lp0
.(lp0
.(lp0
.(lp0
.(lp0
.(lp0
.(lp0
.(lp0
.(lp0
.(lp0
.(lp0
.(lp0
.(lp0
.(lp0
.(lp0
.(lp0
.(lp0
.(lp0
.(lp0
.(lp0
.(lp0
.(lp0
.(lp0
.(lp0
.(lp0
.(lp0
.(lp0
.(lp0
.(lp0
.(lp0
.(lp0
.(lp0
.(lp0
.(lp0
.(lp0
.(lp0
.(lp0
.(lp0
.(lp0
.(lp0
.(lp0
.(lp0
.(lp0
.(lp0
.(lp0
.(lp0
.(lp0
.(lp0
.(lp0
.(lp0
.(lp0
.(lp0
.(lp0
.(lp0
.(lp0
.(lp0
.(lp0
.(lp0
.(lp0
.(lp0
.(lp0
.(lp0
.(lp0
.(lp0
.(lp0
.(lp0
.(lp0
.(lp0
.(lp0
.(lp0
.(lp0
.(lp0
.(lp0
.(lp0
.(lp0
.(lp0
.(lp0
.(lp0
.(lp0
.(lp0
.(lp0
.(lp0
.(lp0
.(lp0
.(lp0
.(lp0
.(lp0
.(lp0
.(lp0
.(lp0
.(lp0
.(lp0
.(lp0
.(lp0
.(lp0
.(lp0
.(lp0
.(lp0
(lp1
S'saveWebContents'
p2
aS'004879'
p3
aa.(lp0
.(lp0
.(lp0
.(lp0
.(lp0
.(lp0
.(lp0
.(lp0
.(lp0
.(lp0
.(lp0
.(lp0
.(lp0
.(lp0
.(lp0
.(lp0
.(lp0
.(lp0
.(lp0
.(lp0
.(lp0
.(lp0
.(lp0
.(lp0
.(lp0
.(lp0
.(lp0
.(lp0
.(lp0
.(lp0
(lp1
S'saveWebContents'
p2
aS'003973'
p3
aa.(lp0
.(lp0
.(lp0
.(lp0
.(lp0
.(lp0
.(lp0
.(lp0
.(lp0
.(lp0
.(lp0
.(lp0
.(lp0
.(lp0
.(lp0
.(lp0
.(lp0
.(lp0
.(lp0
.(lp0
.(lp0
.(lp0
.(lp0
.(lp0
.(lp0
.(lp0
.(lp0
.(lp0
.(lp0
.(lp0
.(lp0
.(lp0
.(lp0
.(lp0
.(lp0
.(lp0
(lp1
S'saveWebContents'
p2
aS'004878'
p3
aa.(lp0
.(lp0
.(lp0
.(lp0
.(lp0
.(lp0
.(lp0
.(lp0
.(lp0
.(lp0
.(lp0
.(lp0
.(lp0
.(lp0
.(lp0
.(lp0
.(lp0
.(lp0
.(lp0
.(lp0
.(lp0
.(lp0
.(lp0
.(lp0
.(lp0
.(lp0
.(lp0
.(lp0
.(lp0
.(lp0
.(lp0
.(lp0
.(lp0
.(lp0
.(lp0
.(lp0
.(lp0
.(lp0
.(lp0
.(lp0
.(lp0
.(lp0
.(lp0
.(lp0
.(lp0
.(lp0
.(lp0
.(lp0
.(lp0
.(lp0
.(lp0
.(lp0
.(lp0
.(lp0
.(lp0
.(lp0
.(lp0
.(lp0
.(lp0
.(lp0
.(lp0
.(lp0
.(lp0
.(lp0
.(lp0
.(lp0
.(lp0
.(lp0
.(lp0
.(lp0
.(lp0
.(lp0
.(lp0
.(lp0
.(lp0
.(lp0
.(lp0
.(lp0
.(lp0
.(lp0
(lp1
S'saveWebContents'
p2
aS'004877'
p3
aa.(lp0
.(lp0
.(lp0
.(lp0
.(lp0
.(lp0
.(lp0
.(lp0
.(lp0
.(lp0
.(lp0
.(lp0
.(lp0
.(lp0
.(lp0
.(lp0
.(lp0
.(lp0
.(lp0
.(lp0
.(lp0
.(lp0
.(lp0
.(lp0
.(lp0
.(lp0
.(lp0
.(lp0
.(lp0
.(lp0
.(lp0
.(lp0
.(lp0
.(lp0
.(lp0
.(lp0
.(lp0
.(lp0
.(lp0
.(lp0
.(lp0
.(lp0
.(lp0
.(lp0
.(lp0
.(lp0
.(lp0
.(lp0
.(lp0
.(lp0
.(lp0
.(lp0
.(lp0
.(lp0
.(lp0
.(lp0
.(lp0
.(lp0
.(lp0
.(lp0
.(lp0
.(lp0
.(lp0
.(lp0
.(lp0
.(lp0
.(lp0
.(lp0
.(lp0
.(lp0
.(lp0
.(lp0
.(lp0
.(lp0
.(lp0
.(lp0
.(lp0
.(lp0
.(lp0
.(lp0
.(lp0
.(lp0
.(lp0
.(lp0
.(lp0
.(lp0
.(lp0
.(lp0
.(lp0
.(lp0
.(lp0
.(lp0
.(lp0
.(lp0
.(lp0
.(lp0
.(lp0
.(lp0
.(lp0
.(lp0
.(lp0
.(lp0
.(lp0
.(lp0
.(lp0
.(lp0
.(lp0
.(lp0
.(lp0
.(lp0
.(lp0
.(lp0
.(lp0
.