(dp0
S'002021_Nav'
p1
(lp2
sS'166005_Nav'
p3
(lp4
sS'100022_Nav'
p5
(lp6
sS'570005_Nav'
p7
(lp8
sS'460005_Nav'
p9
(lp10
sS'162605_Nav'
p11
(lp12
sS'570001_Nav'
p13
(lp14
sS'519697_Nav'
p15
(lp16
sS'690004_Nav'
p17
(lp18
sS'000717_Nav'
p19
(lp20
sS'110011_Nav'
p21
(lp22
sS'260108_Nav'
p23
(lp24
sS'519712_Nav'
p25
(lp26
sS'519736_Nav'
p27
(lp28
sS'161005_Nav'
p29
(lp30
sS'240020_Nav'
p31
(lp32
sS'000083_Nav'
p33
(lp34
sS'002001_Nav'
p35
(lp36
s.