(dp0
S'590009_Nav'
p1
(lp2
S'000003_Nav'
p3
aS'000004_Nav'
p4
aS'000045_Nav'
p5
aS'000046_Nav'
p6
aS'000047_Nav'
p7
aS'000048_Nav'
p8
aS'000050_Nav'
p9
aS'000052_Nav'
p10
aS'000080_Nav'
p11
aS'000081_Nav'
p12
aS'000171_Nav'
p13
aS'000181_Nav'
p14
aS'000182_Nav'
p15
aS'000299_Nav'
p16
aS'000319_Nav'
p17
aS'000385_Nav'
p18
aS'000386_Nav'
p19
aS'000394_Nav'
p20
aS'000801_Nav'
p21
aS'000802_Nav'
p22
aS'000875_Nav'
p23
aS'000876_Nav'
p24
aS'020019_Nav'
p25
aS'020020_Nav'
p26
aS'020033_Nav'
p27
aS'040009_Nav'
p28
aS'040010_Nav'
p29
aS'040012_Nav'
p30
aS'040013_Nav'
p31
aS'050016_Nav'
p32
aS'050116_Nav'
p33
aS'090017_Nav'
p34
aS'100035_Nav'
p35
aS'100037_Nav'
p36
aS'100058_Nav'
p37
aS'100068_Nav'
p38
aS'110008_Nav'
p39
aS'110017_Nav'
p40
aS'110018_Nav'
p41
aS'110035_Nav'
p42
aS'110037_Nav'
p43
aS'151002_Nav'
p44
aS'160217_Nav'
p45
aS'160602_Nav'
p46
aS'160622_Nav'
p47
aS'160718_Nav'
p48
aS'161015_Nav'
p49
aS'161908_Nav'
p50
aS'162105_Nav'
p51
aS'164812_Nav'
p52
aS'164814_Nav'
p53
aS'166003_Nav'
p54
aS'166004_Nav'
p55
aS'166012_Nav'
p56
aS'202101_Nav'
p57
aS'202105_Nav'
p58
aS'202107_Nav'
p59
aS'217008_Nav'
p60
aS'217018_Nav'
p61
aS'240003_Nav'
p62
aS'240018_Nav'
p63
aS'253060_Nav'
p64
aS'253061_Nav'
p65
aS'310518_Nav'
p66
aS'370021_Nav'
p67
aS'370022_Nav'
p68
aS'370025_Nav'
p69
aS'370026_Nav'
p70
aS'372010_Nav'
p71
aS'372110_Nav'
p72
aS'380009_Nav'
p73
aS'410004_Nav'
p74
aS'410005_Nav'
p75
aS'450018_Nav'
p76
aS'450019_Nav'
p77
aS'470010_Nav'
p78
aS'470011_Nav'
p79
aS'470018_Nav'
p80
aS'485005_Nav'
p81
aS'485105_Nav'
p82
aS'519680_Nav'
p83
aS'519682_Nav'
p84
aS'519683_Nav'
p85
aS'519685_Nav'
p86
aS'519718_Nav'
p87
aS'519720_Nav'
p88
aS'530009_Nav'
p89
aS'630009_Nav'
p90
aS'630109_Nav'
p91
aS'710301_Nav'
p92
aS'710302_Nav'
p93
aS'720002_Nav'
p94
aS'750002_Nav'
p95
aS'750003_Nav'
p96
asg85
(lp97
S'000024_Nav'
p98
aS'000025_Nav'
p99
aS'000188_Nav'
p100
aS'000616_Nav'
p101
aS'000617_Nav'
p102
aS'001031_Nav'
p103
aS'110038_Nav'
p104
aS'160612_Nav'
p105
aS'161820_Nav'
p106
ag51
aS'164606_Nav'
p107
aS'206003_Nav'
p108
aS'290009_Nav'
p109
ag71
aS'519729_Nav'
p110
ag1
aS'675011_Nav'
p111
aS'720003_Nav'
p112
asS'000174_Nav'
p113
(lp114
g98
ag99
aS'000107_Nav'
p115
aS'000109_Nav'
p116
aS'000122_Nav'
p117
aS'000123_Nav'
p118
aS'000286_Nav'
p119
aS'000435_Nav'
p120
aS'001013_Nav'
p121
aS'020002_Nav'
p122
ag32
ag33
aS'070020_Nav'
p123
aS'100018_Nav'
p124
ag39
aS'121012_Nav'
p125
aS'121013_Nav'
p126
aS'128112_Nav'
p127
ag46
aS'161115_Nav'
p128
aS'161719_Nav'
p129
ag106
aS'162210_Nav'
p130
aS'162299_Nav'
p131
aS'163812_Nav'
p132
aS'163819_Nav'
p133
aS'165807_Nav'
p134
aS'210014_Nav'
p135
ag64
ag65
aS'288102_Nav'
p136
ag109
aS'395011_Nav'
p137
aS'395012_Nav'
p138
aS'420002_Nav'
p139
aS'420102_Nav'
p140
aS'519733_Nav'
p141
aS'519735_Nav'
p142
aS'519985_Nav'
p143
aS'550004_Nav'
p144
aS'550005_Nav'
p145
aS'590010_Nav'
p146
aS'620003_Nav'
p147
aS'630107_Nav'
p148
aS'650002_Nav'
p149
aS'660002_Nav'
p150
aS'660013_Nav'
p151
asg6
(lp152
S'000014_Nav'
p153
aS'000085_Nav'
p154
aS'000143_Nav'
p155
aS'000147_Nav'
p156
aS'000148_Nav'
p157
ag13
aS'000252_Nav'
p158
aS'000253_Nav'
p159
aS'000320_Nav'
p160
ag18
ag20
aS'000395_Nav'
p161
aS'000473_Nav'
p162
aS'000474_Nav'
p163
aS'000536_Nav'
p164
aS'000669_Nav'
p165
aS'000694_Nav'
p166
aS'000744_Nav'
p167
aS'000745_Nav'
p168
ag21
ag22
ag23
ag24
aS'050006_Nav'
p169
ag42
aS'110036_Nav'
p170
aS'160513_Nav'
p171
aS'160514_Nav'
p172
aS'160618_Nav'
p173
aS'161216_Nav'
p174
aS'163811_Nav'
p175
aS'164208_Nav'
p176
aS'164902_Nav'
p177
aS'165705_Nav'
p178
ag54
ag55
ag57
aS'202108_Nav'
p179
aS'202110_Nav'
p180
aS'206004_Nav'
p181
ag60
aS'233012_Nav'
p182
aS'233013_Nav'
p183
ag62
aS'371020_Nav'
p184
ag73
ag74
ag75
aS'519111_Nav'
p185
aS'519188_Nav'
p186
aS'519660_Nav'
p187
aS'519989_Nav'
p188
aS'530021_Nav'
p189
aS'531021_Nav'
p190
aS'560005_Nav'
p191
ag1
aS'660009_Nav'
p192
aS'660109_Nav'
p193
ag111
aS'675013_Nav'
p194
ag94
asS'180025_Nav'
p195
(lp196
S'000016_Nav'
p197
aS'000175_Nav'
p198
aS'000184_Nav'
p199
aS'000185_Nav'
p200
aS'000260_Nav'
p201
aS'000306_Nav'
p202
ag36
ag171
ag172
ag105
aS'161603_Nav'
p203
ag51
ag109
ag71
ag72
aS'460108_Nav'
p204
aS'485014_Nav'
p205
aS'519078_Nav'
p206
aS'519669_Nav'
p207
aS'650001_Nav'
p208
aS'690006_Nav'
p209
aS'690206_Nav'
p210
aS'700005_Nav'
p211
asS'310379_Nav'
p212
(lp213
g198
ag202
aS'000355_Nav'
p214
aS'000859_Nav'
p215
ag171
ag172
aS'161627_Nav'
p216
aS'162511_Nav'
p217
ag71
aS'400009_Nav'
p218
aS'420008_Nav'
p219
ag194
ag209
ag210
aS'700006_Nav'
p220
asg54
(lp221
S'000007_Nav'
p222
ag5
ag6
ag115
ag116
ag117
aS'000186_Nav'
p223
ag119
ag120
aS'000463_Nav'
p224
aS'000563_Nav'
p225
aS'000564_Nav'
p226
aS'000655_Nav'
p227
aS'100066_Nav'
p228
ag39
ag43
ag104
ag126
aS'128013_Nav'
p229
ag106
ag51
ag130
ag107
ag56
ag109
ag218
aS'400029_Nav'
p230
aS'450005_Nav'
p231
ag188
aS'582001_Nav'
p232
ag1
ag147
ag149
asg33
(lp233
S'000104_Nav'
p234
ag157
ag113
ag198
aS'000187_Nav'
p235
ag100
ag201
ag119
aS'000406_Nav'
p236
aS'000407_Nav'
p237
aS'000466_Nav'
p238
ag225
ag226
ag43
ag104
ag125
ag127
ag44
ag46
ag128
aS'161626_Nav'
p239
ag51
ag175
ag132
ag133
aS'164210_Nav'
p240
aS'164703_Nav'
p241
ag134
ag55
aS'166010_Nav'
p242
ag57
ag108
ag80
ag185
ag187
ag141
aS'582002_Nav'
p243
aS'582202_Nav'
p244
ag1
ag147
ag208
ag209
ag210
ag112
asS'000119_Nav'
p245
(lp246
g235
ag100
ag236
ag227
ag215
ag104
ag125
ag127
ag128
ag51
ag132
ag56
ag110
ag143
ag188
ag146
ag112
asg237
(lp247
g3
ag4
ag5
ag7
ag8
ag9
ag11
ag12
aS'000084_Nav'
p248
ag154
ag115
ag155
aS'000152_Nav'
p249
aS'000153_Nav'
p250
ag100
aS'000298_Nav'
p251
ag17
ag160
ag18
ag19
ag20
aS'000630_Nav'
p252
aS'000668_Nav'
p253
ag165
ag166
ag21
ag22
ag23
ag24
ag25
ag26
aS'040036_Nav'
p254
aS'040037_Nav'
p255
aS'040045_Nav'
p256
aS'050011_Nav'
p257
ag32
aS'050019_Nav'
p258
ag33
aS'050119_Nav'
p259
aS'090002_Nav'
p260
ag34
aS'100051_Nav'
p261
ag38
ag42
ag170
ag43
ag104
ag173
ag48
aS'160915_Nav'
p262
ag49
aS'161505_Nav'
p263
aS'161506_Nav'
p264
aS'161902_Nav'
p265
ag50
aS'162215_Nav'
p266
ag217
ag176
ag53
ag177
aS'165517_Nav'
p267
ag178
ag134
ag58
ag59
aS'206015_Nav'
p268
ag135
ag61
aS'233005_Nav'
p269
ag62
ag63
aS'253030_Nav'
p270
ag66
ag67
ag68
ag69
ag70
ag184
aS'371120_Nav'
p271
ag71
ag73
aS'395001_Nav'
p272
aS'400016_Nav'
p273
ag74
ag75
aS'460008_Nav'
p274
ag78
ag79
ag80
ag185
aS'519186_Nav'
p275
aS'519187_Nav'
p276
ag187
ag87
aS'519730_Nav'
p277
ag188
ag89
ag189
ag190
aS'550018_Nav'
p278
aS'550019_Nav'
p279
ag192
ag92
ag94
asg248
(lp280
g98
ag99
ag5
ag100
ag236
ag237
ag227
ag103
aS'001033_Nav'
p281
ag43
ag216
ag106
ag175
ag132
ag230
ag188
ag146
ag90
ag208
ag194
asS'000377_Nav'
p282
(lp283
g98
ag235
ag100
ag215
ag45
ag106
ag107
ag56
ag110
ag188
ag208
ag111
ag209
ag210
asg159
(lp284
g6
ag224
aS'000481_Nav'
p285
ag125
ag127
ag128
ag239
ag216
ag130
ag131
ag133
ag134
ag231
ag141
ag142
ag144
ag145
ag243
ag244
ag147
ag90
ag91
ag208
ag111
ag194
asS'000130_Nav'
p286
(lp287
g198
ag200
ag201
ag202
ag215
ag105
ag217
ag109
ag71
ag206
ag208
ag209
ag210
ag211
ag220
asS'350006_Nav'
p288
(lp289
g98
ag99
ag119
ag236
ag227
aS'001011_Nav'
p290
ag121
ag261
ag125
ag127
ag46
ag216
ag106
ag130
ag131
ag109
aS'320008_Nav'
p291
ag137
ag138
ag143
ag188
ag232
ag146
aS'630007_Nav'
p292
ag148
ag149
asg258
(lp293
g198
ag235
ag236
ag237
ag227
ag215
ag104
ag45
ag128
ag106
ag51
ag217
ag175
ag56
ag108
ag206
ag110
ag143
ag188
ag146
ag209
ag210
asg35
(lp294
S'000053_Nav'
p295
ag117
ag119
ag227
ag290
ag121
ag123
ag261
ag39
ag126
ag46
ag106
ag130
ag131
ag107
ag134
ag135
ag188
ag144
ag1
ag147
ag292
ag148
ag91
ag149
asg198
(lp296
g98
ag99
ag11
ag12
ag115
ag116
ag118
ag286
ag119
ag120
ag122
ag27
ag28
ag29
ag254
ag255
ag32
ag258
ag33
ag259
ag123
ag228
ag40
ag41
aS'121009_Nav'
p297
ag126
ag229
ag46
ag47
ag48
ag128
ag239
ag106
ag133
aS'164105_Nav'
p298
ag195
aS'180026_Nav'
p299
aS'202102_Nav'
p300
ag135
aS'213007_Nav'
p301
ag109
aS'310378_Nav'
p302
ag212
ag139
ag140
ag78
ag79
aS'470058_Nav'
p303
aS'470059_Nav'
p304
aS'519976_Nav'
p305
aS'519977_Nav'
p306
ag143
aS'540005_Nav'
p307
ag278
ag279
ag243
ag244
ag147
aS'630003_Nav'
p308
aS'630103_Nav'
p309
ag149
ag150
ag92
ag93
asg120
(lp310
g98
ag99
ag9
aS'000054_Nav'
p311
ag156
ag157
ag113
ag198
ag199
ag200
ag201
ag214
aS'000356_Nav'
p312
ag215
ag103
ag281
ag43
ag104
ag44
ag171
ag172
ag106
ag134
ag54
ag55
ag135
ag218
ag80
ag205
aS'485114_Nav'
p313
ag206
ag185
ag187
ag149
ag111
asS'000736_Nav'
p314
(lp315
sg14
(lp316
g100
ag224
ag285
ag103
ag281
ag104
ag216
ag51
ag107
aS'400027_Nav'
p317
ag230
ag1
ag90
ag91
asg77
(lp318
g235
ag224
ag103
ag281
ag216
ag51
ag107
ag56
ag109
ag317
ag230
ag188
ag1
ag208
asg276
(lp319
g98
ag99
ag115
ag116
ag236
ag237
ag224
ag101
ag102
ag215
ag104
ag45
ag105
ag175
ag132
ag71
ag72
aS'420108_Nav'
p320
ag206
ag188
ag111
ag194
aS'690002_Nav'
p321
aS'690202_Nav'
p322
ag112
asS'519676_Nav'
p323
(lp324
S'070037_Nav'
p325
ag45
ag171
ag105
ag51
ag217
ag56
ag109
ag71
ag72
ag206
ag208
ag209
ag210
ag220
asg165
(lp326
g222
ag98
ag99
ag5
ag6
ag100
ag236
ag237
ag224
ag285
ag227
ag281
ag43
ag216
ag106
ag175
ag132
ag109
ag231
ag188
ag146
ag90
ag91
asg168
(lp327
g5
ag6
ag7
ag8
ag295
ag119
ag202
ag214
ag312
ag224
ag285
ag122
ag123
ag261
ag228
ag43
ag126
ag229
ag171
ag46
ag174
ag263
ag264
ag108
ag135
aS'290003_Nav'
p328
ag231
ag303
ag304
ag305
ag306
ag278
ag279
ag90
ag91
ag149
asS'000128_Nav'
p329
(lp330
g5
ag100
ag43
ag216
ag106
ag107
ag109
ag230
ag188
ag90
asg173
(lp331
g98
ag99
ag5
ag6
ag100
ag236
ag237
ag224
ag285
ag227
ag281
ag43
ag216
ag106
ag175
ag132
ag231
ag188
ag146
ag90
ag91
ag208
asg44
(lp332
g115
ag116
ag202
ag214
ag312
ag120
ag215
ag122
ag32
ag33
ag229
ag105
ag48
ag216
ag217
aS'166105_Nav'
p333
aS'206008_Nav'
p334
ag60
ag218
ag219
ag206
ag110
ag305
ag306
ag1
ag321
ag209
ag322
ag210
ag220
asg104
(lp335
g3
ag4
ag98
ag99
ag8
ag311
ag115
aS'000118_Nav'
p336
ag245
ag14
ag15
ag251
ag16
ag236
ag237
ag120
ag162
ag163
aS'000629_Nav'
p337
ag252
ag27
ag28
ag29
ag30
ag31
ag254
ag255
ag256
ag32
ag258
ag33
ag259
ag123
aS'080009_Nav'
p338
aS'080010_Nav'
p339
ag260
ag34
ag37
ag39
ag48
ag128
ag129
ag175
ag132
ag52
ag53
ag267
ag178
ag54
aS'166008_Nav'
p340
ag242
ag58
ag59
ag268
aS'206018_Nav'
p341
ag135
ag63
ag109
ag66
ag67
ag68
ag69
ag70
ag273
ag303
ag304
ag81
ag82
ag206
ag275
ag276
aS'519190_Nav'
p342
ag85
ag86
ag305
ag306
aS'573003_Nav'
p343
ag308
ag90
ag309
ag148
ag91
ag208
ag151
ag111
ag194
ag92
ag93
ag95
ag96
asg219
(lp344
g115
ag116
ag249
ag250
aS'000194_Nav'
p345
ag251
ag16
ag224
ag285
ag337
ag252
ag27
ag28
ag29
ag123
ag338
ag339
ag40
ag44
ag216
ag129
ag270
ag136
ag109
ag302
ag212
ag78
ag79
ag275
aS'519666_Nav'
p346
ag83
ag84
ag87
ag88
ag90
ag91
ag149
ag111
asg111
(lp347
g3
ag4
ag153
ag5
ag6
ag295
ag311
ag117
ag118
ag223
ag235
ag100
ag159
ag119
ag251
ag16
ag282
aS'000378_Nav'
p348
aS'000396_Nav'
p349
ag120
ag337
ag252
ag290
ag27
ag29
ag31
ag169
ag325
ag260
ag124
ag37
ag38
ag39
ag40
ag104
ag45
ag46
ag203
ag129
ag53
ag340
ag56
ag179
ag180
ag108
ag341
ag135
ag64
ag65
ag136
aS'291007_Nav'
p350
ag67
ag68
ag272
ag273
ag219
ag204
ag81
ag82
ag206
ag275
ag276
ag85
ag86
ag188
ag343
ag308
ag90
ag309
ag91
ag151
asg24
(lp351
g222
ag5
ag6
ag295
ag236
ag237
ag285
ag227
ag43
ag216
ag106
ag175
ag132
ag109
ag231
ag188
ag232
ag1
ag146
ag292
ag91
asg49
(lp352
g5
ag100
ag236
ag237
ag224
ag285
ag227
ag281
ag43
ag216
ag106
ag175
ag132
ag109
ag231
ag188
ag1
ag146
ag90
ag91
asg345
(lp353
g101
ag102
ag325
ag45
ag171
ag172
ag105
ag51
ag217
ag56
ag334
ag72
ag219
ag206
ag90
ag208
ag321
ag322
ag112
asg64
(lp354
g113
ag200
ag201
ag214
ag312
ag238
ag36
ag107
ag55
ag61
ag218
ag110
ag188
ag1
ag111
ag211
ag220
asS'166401_Nav'
p355
(lp356
sg249
(lp357
g98
ag99
ag116
ag312
ag236
ag237
ag175
ag132
ag107
ag334
ag71
ag72
ag219
ag206
ag188
ag146
ag90
ag194
ag321
ag210
asg272
(lp358
g98
ag99
ag236
ag237
ag101
ag227
ag215
ag43
ag45
ag106
ag175
ag132
ag56
ag334
ag71
ag72
ag206
ag143
ag188
ag111
ag321
ag322
ag112
asg167
(lp359
g5
ag6
ag119
ag202
ag214
ag312
ag224
ag285
ag122
ag123
ag261
ag43
ag126
ag229
ag171
ag46
ag174
ag108
ag231
ag303
ag304
ag305
ag306
ag90
ag148
ag149
asg81
(lp360
g235
ag312
ag215
ag104
ag45
ag51
ag217
ag107
ag56
ag320
ag206
ag188
ag1
ag111
ag210
asg139
(lp361
g197
ag311
ag113
ag198
ag199
ag200
ag215
ag105
ag174
ag203
ag216
ag333
ag179
ag180
ag61
aS'360009_Nav'
p362
ag205
ag110
ag208
asS'217003_Nav'
p363
(lp364
g153
aS'000015_Nav'
p365
ag197
ag311
ag156
ag157
ag199
ag200
ag235
ag100
ag201
ag119
ag349
ag101
ag102
ag103
ag281
ag122
ag123
ag261
ag263
ag264
ag203
ag265
aS'163907_Nav'
p366
aS'164206_Nav'
p367
ag179
ag334
ag135
ag328
aS'290007_Nav'
p368
ag362
ag317
ag274
ag204
ag303
ag304
ag206
ag207
ag306
ag278
ag279
ag292
ag148
ag209
ag210
ag220
ag112
asg68
(lp369
g98
ag99
ag235
ag237
ag101
ag104
ag51
ag217
ag175
ag132
ag107
ag56
ag108
ag71
ag188
ag1
ag111
ag321
ag112
asg222
(lp370
g311
ag154
ag155
ag156
ag157
ag13
ag158
ag18
ag19
ag238
ag163
ag164
ag165
ag166
ag22
ag23
ag24
ag169
ag32
aS'050111_Nav'
p371
ag42
ag170
ag174
aS'161624_Nav'
p372
aS'161625_Nav'
p373
ag367
ag176
ag177
ag54
ag55
ag57
ag60
ag182
ag183
ag62
ag368
ag109
ag184
ag74
ag75
ag80
ag303
ag304
ag185
ag186
ag187
aS'519731_Nav'
p374
ag189
ag190
ag191
ag208
ag192
ag193
ag194
ag94
asg225
(lp375
g153
ag365
ag197
ag157
ag200
ag202
ag349
ag224
ag285
ag164
ag101
ag102
ag32
ag33
ag261
ag45
ag263
ag203
ag217
ag175
ag367
ag54
ag55
ag333
ag179
ag180
ag60
ag109
ag362
ag317
ag230
ag274
ag204
ag303
ag304
ag206
ag207
ag306
ag278
ag279
ag191
ag232
ag308
ag148
ag208
ag321
ag322
ag211
ag220
ag112
asg302
(lp376
g198
ag201
ag202
ag214
ag215
ag325
ag171
ag172
ag216
ag217
ag219
ag110
ag194
ag209
ag220
asg253
(lp377
g98
ag99
ag5
ag100
ag236
ag237
ag224
ag285
ag227
ag281
ag43
ag216
ag106
ag175
ag132
ag109
ag231
ag188
ag146
ag90
ag91
asg69
(lp378
g98
ag99
ag157
ag100
ag236
ag237
ag101
ag102
ag227
ag103
ag104
ag125
ag128
ag106
ag51
ag175
ag132
ag134
ag108
ag135
ag110
ag143
ag188
ag1
ag208
ag321
ag112
asg295
(lp379
g153
ag365
ag197
ag311
ag214
ag18
ag19
ag238
ag163
ag168
ag24
ag169
ag35
ag171
ag174
ag203
aS'161813_Nav'
p380
ag177
ag55
ag333
ag57
ag179
ag180
ag181
ag362
ag184
ag271
ag74
ag75
ag204
ag80
ag313
ag185
ag187
ag207
ag89
ag111
ag194
asg146
(lp381
g3
ag4
ag5
ag7
ag8
ag9
ag10
ag11
ag12
ag248
ag154
ag336
ag245
ag155
ag156
ag157
ag249
ag250
ag113
ag251
ag16
ag17
ag160
ag19
ag20
ag164
ag253
ag165
ag166
ag21
ag22
ag23
ag24
ag26
ag28
ag29
ag30
ag31
ag256
ag257
ag32
ag258
ag371
ag259
ag260
ag34
ag261
ag37
ag228
ag38
ag39
ag41
ag42
ag170
ag43
ag126
ag229
ag45
ag46
ag173
ag48
ag49
ag372
ag373
ag50
ag51
ag266
ag176
ag52
ag53
ag177
ag134
ag56
ag333
ag268
ag341
ag60
ag269
ag62
ag63
ag270
ag66
ag288
ag184
ag271
ag71
ag72
ag73
ag74
ag75
ag78
ag79
ag80
ag303
ag304
ag313
ag87
ag110
ag277
ag374
ag89
ag189
ag190
ag191
ag90
ag91
ag192
ag92
ag93
ag94
asS'000419_Nav'
p382
(lp383
sg197
(lp384
g295
ag117
ag118
ag119
ag224
ag285
ag225
ag226
ag290
ag121
ag124
ag39
ag126
ag229
ag46
ag128
ag239
ag216
ag298
ag240
ag241
ag134
ag242
ag195
ag135
ag301
ag363
ag109
aS'320004_Nav'
p385
ag291
ag137
ag138
ag139
ag140
ag144
ag145
ag243
ag244
ag90
ag91
ag150
ag194
asg157
(lp386
g222
ag5
ag6
ag100
ag202
ag120
ag225
ag227
ag281
ag32
ag33
ag261
ag228
ag45
ag48
ag174
ag106
ag51
ag217
ag133
ag107
ag363
ag136
ag109
ag291
ag69
ag218
ag230
ag231
ag303
ag304
ag305
ag306
ag188
ag144
ag145
ag232
ag146
ag147
ag292
ag148
asg37
(lp387
g98
ag99
ag235
ag236
ag104
ag105
ag128
ag132
ag108
ag334
ag72
ag317
ag230
ag1
ag146
ag90
ag91
ag208
ag111
ag322
asg71
(lp388
g98
ag99
ag116
ag286
ag249
ag250
ag223
ag119
ag214
ag312
ag237
ag164
ag337
ag252
ag227
ag122
ag27
ag28
ag29
aS'080003_Nav'
p389
ag260
ag34
ag228
ag38
ag297
ag125
ag126
ag127
ag171
ag172
ag47
ag48
ag262
ag128
ag372
ag373
ag239
ag265
ag133
ag366
ag298
ag367
ag107
ag53
ag134
ag242
ag195
ag299
ag300
ag59
ag268
ag135
ag301
ag60
ag63
ag270
ag368
ag350
ag212
ag385
ag67
ag68
ag272
ag218
ag273
ag275
ag276
aS'519519_Nav'
p390
ag323
ag83
ag84
ag85
ag86
ag87
ag88
ag141
ag142
ag143
ag307
ag191
ag243
ag244
ag1
ag146
aS'610003_Nav'
p391
aS'610103_Nav'
p392
ag147
ag150
ag94
ag95
ag96
asS'164509_Nav'
p393
(lp394
sg306
(lp395
g157
ag198
ag100
ag225
ag167
ag168
ag215
ag104
ag125
ag127
ag44
ag239
ag51
ag133
ag240
ag241
ag134
ag242
ag56
ag363
ag141
ag142
ag188
ag243
ag244
ag147
ag210
ag112
asS'000422_Nav'
p396
(lp397
sg199
(lp398
g98
ag99
ag115
ag116
ag117
ag118
ag120
ag121
ag124
ag261
ag39
ag126
ag46
ag128
ag239
ag131
ag133
ag298
ag195
ag301
ag363
ag136
ag109
ag291
ag137
ag139
ag140
ag141
ag142
ag143
ag144
ag145
ag232
ag243
ag244
ag292
ag148
ag150
ag151
asS'164510_Nav'
p399
(lp400
sS'240013_Nav'
p401
(lp402
g202
ag101
ag215
ag325
ag171
ag217
ag56
ag334
ag109
ag72
ag206
ag292
ag90
ag208
ag321
ag210
ag220
asg385
(lp403
g197
ag200
ag235
ag201
ag119
ag202
ag103
ag281
ag325
ag45
ag174
ag203
ag51
ag217
ag56
ag179
ag180
ag334
ag71
ag72
ag303
ag232
ag292
ag148
ag149
ag209
ag220
asg88
(lp404
g214
ag101
ag45
ag105
ag51
ag217
ag175
ag107
ag56
ag334
ag71
ag72
ag218
ag219
ag206
ag188
ag1
ag90
ag194
ag321
ag322
ag112
asg137
(lp405
g153
ag365
ag197
ag311
ag113
ag199
ag119
ag349
ag215
ag169
ag174
ag203
ag216
ag380
ag217
ag333
ag179
ag181
ag61
ag109
ag288
ag362
ag204
ag80
ag205
ag313
ag207
ag208
ag194
asS'000333_Nav'
p406
(lp407
sS'000840_Nav'
p408
(lp409
sg172
(lp410
g5
ag6
ag115
ag235
ag100
ag345
ag120
ag224
ag238
ag285
ag215
ag290
ag121
ag27
ag28
ag29
ag389
ag124
ag39
ag43
ag126
ag229
ag46
ag47
ag129
ag51
ag217
ag178
ag134
ag195
ag299
ag334
ag302
ag212
ag71
ag72
aS'380005_Nav'
p411
aS'380006_Nav'
p412
ag342
ag83
ag110
ag91
ag151
asg133
(lp413
g153
ag365
ag157
ag113
ag198
ag199
ag158
ag159
ag201
ag161
ag349
ag164
ag215
ag122
ag169
ag32
ag33
ag36
ag105
ag372
ag380
ag51
ag217
ag367
ag55
ag56
ag333
ag181
ag334
ag60
ag61
ag109
ag362
ag71
ag72
ag274
ag303
ag304
ag205
ag313
ag305
ag306
ag191
ag232
ag292
ag90
ag148
ag149
asg62
(lp414
g222
ag98
ag99
ag5
ag6
ag236
ag237
ag224
ag285
ag227
ag43
ag216
ag106
ag175
ag132
ag109
ag231
ag188
ag1
ag146
ag90
ag91
asg274
(lp415
g117
ag236
ag237
ag224
ag285
ag225
ag226
ag126
ag229
ag127
ag128
ag239
ag216
ag130
ag131
ag175
ag132
ag133
ag240
ag134
ag363
ag231
ag141
ag142
ag188
ag144
ag145
ag243
ag244
ag208
ag194
asg118
(lp416
g365
ag197
ag113
ag198
ag199
ag200
ag201
ag202
ag238
ag36
ag171
ag203
ag55
ag333
ag180
ag61
ag207
ag111
ag194
ag209
ag211
asg281
(lp417
g153
ag248
ag154
ag115
ag116
ag156
ag157
ag14
ag15
ag158
ag202
ag17
ag160
ag120
ag164
ag253
ag165
ag166
ag21
ag25
ag26
ag169
ag257
ag371
ag338
ag339
ag42
ag170
ag173
ag48
ag49
ag128
ag174
ag372
ag373
ag176
ag107
ag267
ag179
ag180
ag363
ag60
ag269
ag182
ag183
ag385
ag73
ag218
ag76
ag77
ag186
ag342
ag346
ag277
ag374
ag143
ag188
ag191
ag308
ag309
ag192
ag193
ag94
asg262
(lp418
g98
ag99
ag236
ag237
ag101
ag227
ag43
ag45
ag106
ag217
ag175
ag132
ag56
ag334
ag71
ag206
ag143
ag188
ag321
ag112
asg226
(lp419
g197
ag202
ag224
ag285
ag164
ag101
ag102
ag32
ag33
ag261
ag45
ag203
ag216
ag217
ag54
ag55
ag179
ag180
ag109
ag317
ag230
ag274
ag204
ag303
ag304
ag206
ag207
ag191
ag232
ag148
ag91
ag208
ag321
ag322
ag220
ag112
asg392
(lp420
g202
ag45
ag105
ag51
ag217
ag56
ag180
ag334
ag109
ag71
ag72
ag206
ag232
ag292
ag90
ag209
ag210
ag220
asg181
(lp421
g98
ag99
ag6
ag295
ag116
ag100
ag290
ag43
ag125
ag127
ag128
ag216
ag130
ag131
ag133
ag109
ag291
ag137
ag138
ag141
ag142
ag143
ag144
ag147
ag91
ag208
asg83
(lp422
g214
ag312
ag101
ag215
ag45
ag172
ag105
ag51
ag217
ag107
ag55
ag56
ag71
ag72
ag218
ag219
ag320
ag206
ag1
ag194
ag112
asg5
(lp423
g98
ag248
ag154
ag329
ag155
ag156
ag157
ag13
ag158
ag17
ag160
ag20
ag161
ag236
ag237
ag162
ag163
ag164
ag253
ag165
ag166
ag167
ag168
ag21
ag22
ag23
ag24
ag169
ag42
ag170
ag171
ag172
ag173
ag48
ag49
ag174
ag372
ag373
ag175
ag132
ag176
ag178
ag54
ag55
ag57
ag179
ag180
ag60
ag269
ag182
ag183
ag62
ag73
ag74
ag75
ag185
ag186
ag187
ag277
ag374
ag188
ag189
ag190
ag191
ag1
ag146
ag192
ag193
ag111
ag194
ag94
asg214
(lp424
g295
ag119
ag251
ag16
ag120
ag224
ag285
ag167
ag168
ag290
ag121
ag27
ag28
ag29
ag338
ag339
ag39
ag44
ag47
ag50
ag51
ag217
ag267
ag134
ag56
ag64
ag65
ag136
ag302
ag212
ag71
ag72
ag83
ag88
ag110
ag90
ag208
ag151
asg15
(lp425
g100
ag224
ag285
ag281
ag104
ag216
ag51
ag107
ag317
ag230
ag231
ag1
ag90
ag91
asg236
(lp426
g3
ag4
ag5
ag7
ag8
ag9
ag248
ag154
ag115
ag336
ag245
ag155
ag249
ag250
ag100
ag119
ag17
ag160
ag18
ag19
ag161
ag337
ag252
ag253
ag165
ag166
ag22
ag23
ag24
ag26
ag254
ag255
ag256
ag257
ag32
ag258
ag371
ag33
ag259
ag260
ag34
ag261
ag37
ag38
ag42
ag170
ag43
ag104
ag173
ag48
ag262
ag49
ag263
ag264
ag372
ag373
ag265
ag266
ag217
ag366
ag176
ag53
ag177
ag267
ag178
ag134
ag58
ag59
ag268
ag341
ag135
ag61
ag269
ag62
ag63
ag270
ag328
ag350
ag66
ag288
ag67
ag69
ag70
ag184
ag271
ag73
ag272
ag273
ag74
ag75
ag274
ag204
ag78
ag79
ag185
ag275
ag276
ag186
ag187
ag207
ag87
ag277
ag188
ag89
ag189
ag190
ag278
ag279
ag191
ag192
ag193
ag94
asS'000897_Nav'
p427
(lp428
sg366
(lp429
g115
ag116
ag236
ag224
ag238
ag101
ag102
ag227
ag43
ag125
ag127
ag45
ag128
ag106
ag132
ag242
ag334
ag363
ag71
ag72
ag206
ag143
ag90
ag321
ag322
ag112
asg130
(lp430
g153
ag155
ag113
ag158
ag159
ag18
ag19
ag161
ag349
ag238
ag164
ag169
ag32
ag35
ag36
ag174
ag380
ag177
ag54
ag55
ag333
ag179
ag181
ag60
ag109
ag288
ag184
ag271
ag274
ag80
ag303
ag304
ag313
ag110
ag89
ag190
ag191
asg231
(lp431
g311
ag154
ag234
ag155
ag156
ag157
ag13
ag15
ag158
ag159
ag17
ag160
ag20
ag161
ag349
ag162
ag164
ag253
ag165
ag166
ag167
ag168
ag21
ag22
ag23
ag24
ag169
ag257
ag371
ag42
ag170
ag173
ag49
ag174
ag176
ag54
ag333
ag269
ag182
ag183
ag62
ag184
ag73
ag274
ag204
ag186
ag277
ag374
ag189
ag190
ag192
ag193
asg317
(lp432
g14
ag15
ag164
ag225
ag226
ag37
ag126
ag229
ag48
ag372
ag373
ag216
ag266
ag367
ag53
ag340
ag341
ag363
ag60
ag368
ag350
ag76
ag77
ag188
ag191
ag94
asg174
(lp433
g222
ag5
ag6
ag9
ag10
ag295
ag156
ag157
ag100
ag119
ag312
ag224
ag238
ag285
ag227
ag167
ag168
ag215
ag121
ag103
ag281
ag338
ag339
ag46
ag47
ag106
ag50
ag130
ag131
ag240
ag241
ag334
ag135
aS'240012_Nav'
p434
ag385
ag137
ag138
ag139
ag140
ag231
ag141
ag142
ag208
ag95
ag96
asg254
(lp435
g198
ag236
ag237
ag238
ag227
ag104
ag45
ag128
ag106
ag175
ag132
ag242
ag108
ag320
ag206
ag110
ag143
ag188
ag209
ag210
asg94
(lp436
g222
ag98
ag99
ag5
ag6
ag119
ag236
ag237
ag227
ag103
ag281
ag43
ag125
ag105
ag128
ag175
ag132
ag134
ag334
ag71
ag72
ag317
ag230
ag143
ag188
ag1
ag146
ag90
ag208
ag321
ag322
asS'000420_Nav'
p437
(lp438
sg29
(lp439
g198
ag202
ag214
ag104
ag45
ag171
ag172
ag51
ag217
ag55
ag334
ag71
ag72
ag218
ag219
ag188
ag1
ag146
ag111
ag194
ag209
ag210
ag220
asg61
(lp440
g117
ag118
ag119
ag236
ag237
ag121
ag122
ag123
ag124
ag261
ag39
ag125
ag127
ag46
ag129
ag106
ag131
ag175
ag132
ag133
ag134
ag135
ag64
ag65
ag109
ag291
ag137
ag138
ag139
ag140
ag141
ag142
ag188
ag144
ag145
ag1
ag147
ag148
ag149
ag150
ag151
asg228
(lp441
g98
ag99
ag157
ag198
ag200
ag238
ag168
ag325
ag36
ag45
ag128
ag54
ag56
ag71
ag206
ag188
ag146
ag90
ag91
ag321
ag210
ag220
asg261
(lp442
g157
ag199
ag200
ag236
ag237
ag238
ag225
ag226
ag227
ag167
ag168
ag35
ag36
ag125
ag127
ag128
ag217
ag175
ag132
ag55
ag242
ag57
ag108
ag363
ag61
ag288
ag74
ag75
ag80
ag205
ag206
ag185
ag187
ag188
ag89
ag146
ag211
ag220
asg313
(lp443
g98
ag99
ag295
ag120
ag290
ag121
ag43
ag125
ag127
ag128
ag216
ag130
ag131
ag133
ag291
ag137
ag138
ag141
ag142
ag143
ag144
ag145
ag146
ag147
ag292
asg252
(lp444
g98
ag99
ag115
ag116
ag236
ag237
ag224
ag101
ag104
ag45
ag105
ag128
ag175
ag132
ag108
ag334
ag71
ag72
ag219
ag320
ag206
ag143
ag188
ag90
ag111
ag321
ag322
ag112
asg182
(lp445
g222
ag98
ag99
ag5
ag6
ag100
ag285
ag227
ag103
ag281
ag43
ag125
ag127
ag128
ag216
ag106
ag231
ag143
ag188
ag91
ag208
ag194
asg53
(lp446
g98
ag99
ag100
ag236
ag237
ag102
ag227
ag103
ag104
ag105
ag106
ag51
ag175
ag132
ag334
ag71
ag72
ag317
ag143
ag188
ag1
ag146
ag90
ag208
ag111
ag321
ag322
asg186
(lp447
g222
ag5
ag6
ag100
ag236
ag224
ag285
ag281
ag43
ag125
ag127
ag128
ag216
ag175
ag132
ag231
ag143
ag188
ag147
ag90
ag91
ag208
ag194
asS'166016_Nav'
p448
(lp449
sS'000737_Nav'
p450
(lp451
sg22
(lp452
g222
ag98
ag99
ag5
ag6
ag236
ag237
ag227
ag43
ag216
ag106
ag175
ag132
ag230
ag231
ag188
ag1
ag146
ag90
ag91
ag194
asg187
(lp453
g222
ag98
ag99
ag5
ag6
ag295
ag115
ag116
ag100
ag236
ag237
ag120
ag227
ag290
ag32
ag33
ag261
ag43
ag125
ag216
ag175
ag132
ag109
ag291
ag138
ag188
ag232
ag292
ag148
ag208
asg40
(lp454
g98
ag99
ag198
ag201
ag312
ag45
ag217
ag107
ag219
ag320
ag110
ag1
ag111
ag209
asg65
(lp455
g113
ag200
ag201
ag214
ag312
ag238
ag107
ag61
ag218
ag110
ag188
ag1
ag111
ag211
ag220
asg169
(lp456
g222
ag5
ag6
ag295
ag100
ag224
ag285
ag103
ag281
ag43
ag125
ag127
ag128
ag216
ag130
ag131
ag133
ag242
ag137
ag138
ag231
ag141
ag142
ag188
ag147
ag208
ag111
asS'000421_Nav'
p457
(lp458
sg90
(lp459
g153
ag365
ag197
ag98
ag99
aS'000069_Nav'
p460
aS'000070_Nav'
p461
ag248
ag154
ag115
ag116
ag329
ag156
ag249
ag250
ag13
ag14
ag15
ag223
ag235
ag100
ag345
ag158
ag159
ag251
ag16
ag17
ag160
ag214
ag312
ag20
ag161
ag349
ag238
ag162
ag163
ag337
ag252
ag227
ag253
ag165
ag166
ag167
ag168
ag21
ag22
ag23
ag25
ag26
ag257
ag371
aS'070005_Nav'
p462
ag325
ag389
ag37
ag228
ag38
ag42
ag170
ag43
ag104
ag173
ag48
ag49
ag203
ag239
ag216
ag50
ag133
ag366
ag367
ag176
ag240
ag53
ag178
ag340
ag333
ag179
ag180
ag341
ag135
ag60
ag269
ag62
ag434
ag401
ag368
ag109
ag350
ag362
ag184
ag411
ag412
ag73
ag218
ag219
ag320
ag78
ag79
ag186
ag207
ag87
ag88
ag143
ag189
ag190
ag243
ag244
ag1
ag146
ag391
ag392
ag147
ag192
ag193
ag111
ag194
ag94
asg19
(lp463
g222
ag98
ag295
ag119
ag236
ag237
ag227
ag290
ag43
ag216
ag106
ag130
ag175
ag132
ag134
ag109
ag188
ag232
ag1
ag146
ag292
ag149
asg271
(lp464
g98
ag99
ag295
ag236
ag237
ag285
ag290
ag125
ag127
ag216
ag130
ag131
ag175
ag132
ag109
ag141
ag143
ag188
ag146
ag147
ag91
asg50
(lp465
g115
ag116
ag214
ag312
ag237
ag224
ag101
ag102
ag215
ag174
ag175
ag109
ag72
ag218
ag206
ag188
ag1
ag146
ag90
ag208
ag321
ag322
ag112
asg121
(lp466
g197
ag311
ag113
ag199
ag200
ag214
ag238
ag325
ag35
ag36
ag171
ag172
ag174
ag217
ag61
ag288
ag205
ag313
ag89
ag194
ag211
asS'000839_Nav'
p467
(lp468
sg115
(lp469
g9
ag10
ag234
ag113
ag198
ag199
ag200
ag201
ag236
ag237
ag337
ag252
ag103
ag281
ag122
ag325
ag43
ag104
ag44
ag171
ag172
ag47
ag50
ag266
ag175
ag132
ag366
ag107
ag54
ag55
ag179
ag180
ag218
ag219
ag320
ag80
ag185
ag275
ag276
ag187
ag110
ag90
ag91
ag209
ag210
ag112
asg278
(lp470
g99
ag198
ag235
ag236
ag237
ag225
ag227
ag168
ag215
ag43
ag128
ag217
ag175
ag108
ag363
ag206
ag110
ag143
ag188
ag209
ag210
asg122
(lp471
g115
ag116
ag113
ag198
ag224
ag162
ag163
ag285
ag101
ag227
ag167
ag168
ag338
ag43
ag125
ag127
ag44
ag128
ag239
ag106
ag51
ag175
ag132
ag133
ag241
ag242
ag334
ag363
ag61
ag291
ag71
ag72
ag320
ag342
ag141
ag142
ag188
ag243
ag244
ag308
ag309
ag321
ag210
ag112
asg110
(lp472
g3
ag4
ag98
ag99
ag7
ag8
ag12
ag115
ag116
ag336
ag245
ag235
ag100
ag214
ag312
ag282
ag348
ag227
ag30
ag31
ag254
ag255
ag256
ag258
ag259
ag123
ag34
ag124
ag39
ag40
ag41
ag43
ag125
ag127
ag44
ag172
ag46
ag48
ag128
ag263
ag264
ag216
ag130
ag131
ag58
ag59
ag60
ag63
ag64
ag65
ag109
ag302
ag66
ag69
ag70
ag139
ag140
ag78
ag79
ag390
ag85
ag143
ag188
ag144
ag145
ag278
ag279
ag191
ag343
ag146
ag149
ag151
asg232
(lp473
g460
ag461
ag156
ag157
ag13
ag199
ag200
ag201
ag18
ag19
ag163
ag225
ag226
ag23
ag24
ag462
ag339
ag45
ag239
ag217
ag133
ag240
ag241
ag54
ag56
ag108
ag434
ag385
ag288
ag74
ag75
ag206
ag185
ag187
ag346
ag141
ag142
ag188
ag89
ag243
ag244
ag391
ag392
ag147
ag211
ag220
asg218
(lp474
g9
ag10
ag115
ag116
ag157
ag250
ag119
ag251
ag16
ag120
ag224
ag238
ag162
ag285
ag215
ag103
ag281
ag27
ag28
ag29
ag38
ag39
ag44
ag129
ag50
ag134
ag54
ag55
ag57
ag334
ag135
ag64
ag65
ag136
ag212
ag71
ag72
ag76
ag83
ag84
ag88
ag90
ag91
ag95
ag96
asg103
(lp475
g311
ag248
ag115
ag116
ag156
ag14
ag202
ag120
ag164
ag25
ag26
ag169
ag257
ag371
ag34
ag48
ag174
ag372
ag373
ag107
ag53
ag267
ag179
ag180
ag363
ag60
ag269
ag182
ag63
ag385
ag69
ag70
ag218
ag76
ag77
ag342
ag346
ag85
ag86
ag143
ag188
ag191
ag308
ag309
ag94
asg305
(lp476
g157
ag198
ag100
ag167
ag168
ag215
ag104
ag125
ag127
ag44
ag128
ag239
ag51
ag133
ag240
ag241
ag134
ag242
ag56
ag141
ag142
ag188
ag147
ag210
ag112
asg9
(lp477
g115
ag116
ag312
ag236
ag237
ag120
ag224
ag101
ag102
ag215
ag174
ag175
ag132
ag60
ag109
ag72
ag218
ag206
ag188
ag1
ag146
ag321
ag322
ag112
asg311
(lp478
g222
ag295
ag235
ag120
ag290
ag121
ag103
ag104
ag125
ag127
ag105
ag106
ag242
ag363
ag291
ag137
ag138
ag139
ag140
ag231
ag141
ag142
ag111
asg39
(lp479
g197
ag113
ag199
ag200
ag201
ag202
ag214
ag312
ag238
ag162
ag163
ag325
ag35
ag36
ag104
ag171
ag172
ag178
ag54
ag55
ag333
ag61
ag218
ag205
ag110
ag1
ag146
ag111
ag211
ag220
asg136
(lp480
g98
ag99
ag156
ag157
ag113
ag199
ag200
ag214
ag312
ag215
ag45
ag51
ag107
ag56
ag109
ag218
ag219
ag320
ag80
ag206
ag185
ag208
ag111
ag220
asg320
(lp481
g7
ag234
ag115
ag116
ag223
ag337
ag252
ag122
ag254
ag255
ag123
ag338
ag339
ag260
ag40
ag41
ag216
ag129
ag266
ag52
ag270
ag136
ag109
ag273
ag81
ag82
ag275
ag276
ag342
ag83
ag84
ag90
ag91
ag149
ag95
ag96
asg194
(lp482
g222
ag153
ag365
ag197
ag5
ag6
ag295
ag248
ag154
ag117
ag118
ag155
ag249
ag250
ag235
ag100
ag158
ag159
ag119
ag251
ag16
ag17
ag160
ag161
ag349
ag166
ag22
ag290
ag121
ag28
ag29
ag30
ag31
ag124
ag42
ag170
ag43
ag104
ag297
ag46
ag129
ag380
ag217
ag176
ag52
ag177
ag178
ag300
ag179
ag108
ag135
ag269
ag182
ag183
ag270
ag302
ag212
ag291
ag362
ag137
ag138
ag274
ag204
ag206
ag276
ag186
ag207
ag83
ag84
ag87
ag88
ag188
ag189
ag190
ag90
ag91
ag150
ag151
ag220
asg52
(lp483
g101
ag102
ag104
ag45
ag105
ag51
ag217
ag107
ag56
ag108
ag334
ag72
ag320
ag188
ag1
ag146
ag194
ag321
ag322
ag112
asg185
(lp484
g222
ag98
ag99
ag5
ag6
ag295
ag115
ag116
ag235
ag100
ag236
ag237
ag120
ag227
ag290
ag32
ag33
ag261
ag43
ag125
ag216
ag106
ag217
ag132
ag136
ag109
ag291
ag138
ag232
ag308
ag292
ag148
ag208
asg223
(lp485
g312
ag101
ag102
ag125
ag127
ag45
ag128
ag51
ag217
ag54
ag55
ag242
ag56
ag108
ag334
ag71
ag72
ag320
ag206
ag143
ag188
ag90
ag91
ag111
ag321
ag322
ag112
asg107
(lp486
g115
ag116
ag329
ag156
ag157
ag249
ag250
ag13
ag14
ag15
ag235
ag100
ag119
ag251
ag16
ag282
ag348
ag20
ag224
ag163
ag285
ag103
ag281
ag25
ag27
ag30
ag31
ag260
ag35
ag36
ag38
ag40
ag41
ag266
ag217
ag52
ag267
ag178
ag54
ag55
ag57
ag334
ag135
ag270
ag64
ag65
ag136
ag68
ag71
ag72
ag76
ag77
ag80
ag81
ag82
ag83
ag84
ag85
ag86
ag87
ag88
ag343
ag308
ag309
ag92
ag93
ag95
asg102
(lp487
g9
ag10
ag223
ag345
ag225
ag226
ag34
ag126
ag229
ag48
ag372
ag373
ag216
ag265
ag50
ag266
ag366
ag367
ag52
ag53
ag58
ag59
ag268
ag341
ag363
ag60
ag63
ag270
ag328
ag69
ag275
ag276
ag342
ag390
ag346
ag85
ag86
ag87
ag188
ag191
ag95
ag96
asg125
(lp488
g311
ag336
ag245
ag155
ag113
ag223
ag158
ag159
ag119
ag161
ag166
ag215
ag122
ag169
ag257
ag32
ag371
ag33
ag34
ag36
ag261
ag170
ag105
ag372
ag373
ag265
ag217
ag366
ag367
ag177
ag340
ag181
ag60
ag61
ag182
ag183
ag63
ag328
ag368
ag109
ag350
ag288
ag69
ag184
ag271
ag71
ag80
ag205
ag313
ag185
ag186
ag390
ag187
ag110
ag374
ag305
ag306
ag89
ag189
ag190
ag191
ag148
ag149
ag192
ag193
ag94
asg73
(lp489
g5
ag6
ag100
ag236
ag237
ag224
ag285
ag227
ag281
ag43
ag216
ag106
ag175
ag132
ag109
ag231
ag188
ag1
ag146
ag90
ag91
ag208
asg380
(lp490
g295
ag117
ag224
ag285
ag290
ag127
ag128
ag239
ag216
ag130
ag131
ag133
ag134
ag291
ag137
ag138
ag141
ag142
ag144
ag145
ag243
ag244
ag147
ag91
ag208
ag194
asg309
(lp491
g234
ag198
ag201
ag103
ag281
ag122
ag43
ag104
ag105
ag106
ag51
ag107
ag134
ag108
ag135
ag109
ag149
ag111
ag209
ag210
asg242
(lp492
g153
ag197
ag311
ag223
ag235
ag100
ag201
ag164
ag122
ag254
ag169
ag32
ag33
ag123
ag325
ag261
ag43
ag104
ag126
ag229
ag203
ag372
ag217
ag366
ag367
ag340
ag333
ag179
ag334
ag135
ag60
ag368
ag362
ag71
ag72
ag304
ag390
ag305
ag306
ag188
ag191
ag149
ag209
ag210
ag211
ag220
asg13
(lp493
g222
ag5
ag6
ag285
ag227
ag216
ag106
ag107
ag109
ag231
ag188
ag232
ag1
ag292
ag90
ag91
asg368
(lp494
g222
ag235
ag100
ag224
ag227
ag43
ag125
ag127
ag105
ag128
ag51
ag217
ag134
ag242
ag56
ag334
ag363
ag71
ag72
ag317
ag230
ag143
ag90
ag112
asg251
(lp495
g214
ag237
ag224
ag101
ag104
ag45
ag51
ag175
ag107
ag56
ag334
ag72
ag218
ag219
ag188
ag146
ag90
ag111
ag194
ag321
ag210
ag112
asg461
(lp496
g202
ag101
ag325
ag45
ag51
ag217
ag56
ag180
ag334
ag109
ag72
ag206
ag232
ag292
ag90
ag148
ag91
ag208
ag321
ag210
ag112
asg462
(lp497
g200
ag202
ag45
ag105
ag51
ag217
ag56
ag180
ag334
ag109
ag72
ag206
ag207
ag232
ag292
ag90
ag91
ag209
ag210
ag220
asg161
(lp498
g99
ag5
ag6
ag236
ag224
ag285
ag125
ag127
ag128
ag239
ag216
ag130
ag131
ag175
ag132
ag133
ag231
ag141
ag142
ag143
ag147
ag90
ag91
ag208
ag194
asg202
(lp499
g460
ag461
ag117
ag118
ag286
ag157
ag119
ag224
ag285
ag225
ag226
ag167
ag168
ag103
ag281
ag28
ag29
ag462
ag338
ag339
ag124
ag39
ag43
ag297
ag44
ag46
ag105
ag47
ag129
ag217
ag298
ag240
ag195
ag299
ag300
ag135
ag301
ag434
ag401
ag302
ag212
ag385
ag291
ag342
ag346
ag307
ag144
ag145
ag243
ag244
ag391
ag392
ag208
ag151
asg230
(lp500
g248
ag154
ag329
ag156
ag157
ag14
ag15
ag17
ag164
ag225
ag226
ag21
ag22
ag25
ag26
ag257
ag371
ag37
ag42
ag126
ag229
ag178
ag54
ag340
ag341
ag60
ag368
ag76
ag77
ag188
ag191
ag94
asg285
(lp501
g153
ag365
ag197
ag155
ag13
ag14
ag15
ag235
ag100
ag158
ag159
ag119
ag202
ag214
ag312
ag161
ag349
ag162
ag163
ag225
ag226
ag253
ag165
ag167
ag168
ag23
ag24
ag122
ag169
ag257
ag371
ag325
ag42
ag170
ag126
ag229
ag171
ag172
ag173
ag49
ag174
ag203
ag216
ag380
ag106
ag217
ag107
ag177
ag267
ag134
ag55
ag179
ag180
ag135
ag269
ag182
ag183
ag62
ag109
ag362
ag184
ag271
ag73
ag218
ag219
ag274
ag204
ag186
ag207
ag208
ag149
ag192
ag193
asg203
(lp502
g295
ag117
ag118
ag119
ag224
ag285
ag225
ag226
ag290
ag126
ag229
ag46
ag128
ag239
ag216
ag131
ag298
ag240
ag241
ag134
ag242
ag195
ag301
ag363
ag385
ag291
ag137
ag138
ag139
ag140
ag144
ag145
ag243
ag244
ag90
ag91
ag208
ag150
ag111
asg240
(lp503
g197
ag200
ag201
ag202
ag224
ag164
ag101
ag215
ag32
ag33
ag48
ag174
ag203
ag216
ag333
ag180
ag334
ag60
ag362
ag72
ag274
ag204
ag303
ag304
ag206
ag207
ag305
ag306
ag191
ag232
ag292
ag90
ag148
ag91
ag208
ag321
ag209
ag322
ag210
ag211
ag220
asg350
(lp504
g235
ag100
ag236
ag224
ag227
ag43
ag125
ag127
ag105
ag128
ag106
ag51
ag217
ag56
ag334
ag71
ag72
ag317
ag143
ag90
ag111
ag322
ag112
asg26
(lp505
g100
ag236
ag237
ag224
ag227
ag103
ag281
ag216
ag106
ag175
ag132
ag109
ag230
ag188
ag1
ag146
ag90
ag91
ag208
asS'000896_Nav'
p506
(lp507
sg150
(lp508
g197
ag113
ag198
ag199
ag200
ag201
ag215
ag105
ag203
ag217
ag55
ag180
ag334
ag61
ag71
ag205
ag207
ag194
ag211
ag220
asg70
(lp509
g98
ag99
ag100
ag236
ag237
ag101
ag227
ag103
ag104
ag106
ag51
ag175
ag132
ag134
ag108
ag110
ag143
ag188
ag1
ag208
ag112
asg183
(lp510
g222
ag5
ag6
ag100
ag285
ag281
ag43
ag125
ag127
ag128
ag216
ag106
ag291
ag231
ag143
ag208
ag194
asg338
(lp511
g100
ag119
ag202
ag214
ag312
ag101
ag281
ag122
ag43
ag104
ag126
ag229
ag45
ag174
ag334
ag72
ag219
ag320
ag206
ag188
ag292
ag148
ag149
ag210
asg365
(lp512
g295
ag117
ag118
ag119
ag224
ag285
ag225
ag290
ag126
ag229
ag46
ag128
ag239
ag216
ag131
ag133
ag134
ag363
ag109
ag137
ag138
ag141
ag142
ag144
ag145
ag243
ag244
ag90
ag91
ag194
asg297
(lp513
g198
ag202
ag215
ag325
ag45
ag105
ag216
ag51
ag217
ag55
ag334
ag109
ag71
ag72
ag194
ag209
ag210
ag220
asg23
(lp514
g222
ag5
ag6
ag236
ag237
ag285
ag227
ag43
ag216
ag106
ag175
ag132
ag109
ag231
ag188
ag232
ag1
ag146
ag90
ag91
asg28
(lp515
g198
ag202
ag214
ag104
ag45
ag171
ag172
ag51
ag217
ag55
ag334
ag71
ag72
ag218
ag219
ag1
ag146
ag194
ag209
ag210
ag220
asg47
(lp516
g115
ag116
ag198
ag202
ag214
ag215
ag325
ag171
ag172
ag105
ag174
ag333
ag334
ag109
ag71
ag72
ag188
ag1
ag209
ag210
ag211
ag220
asg207
(lp517
g295
ag116
ag117
ag118
ag236
ag224
ag285
ag225
ag226
ag290
ag462
ag126
ag229
ag46
ag128
ag216
ag131
ag175
ag132
ag298
ag240
ag241
ag134
ag195
ag299
ag301
ag363
ag291
ag137
ag138
ag144
ag145
ag391
ag90
ag91
ag208
ag150
ag194
asg235
(lp518
g3
ag4
ag98
ag99
ag7
ag8
ag311
ag11
ag12
ag336
ag245
ag156
ag282
ag348
ag224
ag285
ag30
ag31
ag256
ag257
ag32
ag258
ag371
ag33
ag259
ag37
ag171
ag172
ag48
ag128
ag265
ag367
ag107
ag267
ag340
ag242
ag334
ag268
ag341
ag363
ag328
ag368
ag350
ag66
ag385
ag291
ag67
ag68
ag76
ag77
ag81
ag185
ag342
ag390
ag346
ag110
ag143
ag188
ag278
ag343
ag292
ag90
ag148
ag91
ag111
ag194
ag92
ag93
ag95
ag96
asg131
(lp519
g153
ag365
ag113
ag199
ag159
ag161
ag349
ag238
ag164
ag169
ag35
ag36
ag174
ag203
ag380
ag55
ag333
ag179
ag180
ag181
ag61
ag109
ag288
ag362
ag271
ag274
ag204
ag303
ag304
ag205
ag313
ag207
ag110
ag89
ag191
asg162
(lp520
g5
ag6
ag119
ag224
ag285
ag122
ag39
ag104
ag216
ag135
ag218
ag231
ag188
ag292
ag90
ag148
ag91
asg206
(lp521
g9
ag10
ag460
ag461
ag286
ag156
ag249
ag250
ag223
ag345
ag120
ag225
ag226
ag337
ag252
ag30
ag31
ag254
ag255
ag256
ag258
ag462
ag389
ag338
ag339
ag260
ag261
ag228
ag38
ag43
ag104
ag126
ag229
ag44
ag262
ag263
ag264
ag216
ag265
ag50
ag366
ag240
ag195
ag299
ag363
ag434
ag401
ag136
ag109
ag411
ag412
ag272
ag273
ag78
ag81
ag82
ag275
ag276
ag346
ag323
ag83
ag87
ag88
ag307
ag278
ag279
ag232
ag391
ag392
ag292
ag148
ag111
ag194
ag92
ag93
asg265
(lp522
g235
ag236
ag237
ag101
ag102
ag227
ag215
ag43
ag125
ag45
ag128
ag51
ag217
ag175
ag132
ag56
ag334
ag363
ag71
ag206
ag143
ag321
ag322
ag112
asg216
(lp523
g153
ag365
ag197
ag248
ag154
ag234
ag329
ag155
ag13
ag14
ag15
ag158
ag159
ag17
ag160
ag18
ag19
ag20
ag161
ag349
ag224
ag162
ag163
ag285
ag226
ag101
ag102
ag253
ag165
ag166
ag21
ag22
ag23
ag24
ag25
ag26
ag30
ag31
ag169
ag257
ag371
ag325
ag42
ag170
ag297
ag44
ag173
ag48
ag49
ag203
ag380
ag106
ag51
ag176
ag240
ag241
ag177
ag178
ag134
ag179
ag180
ag181
ag269
ag182
ag183
ag62
ag302
ag212
ag291
ag288
ag362
ag184
ag271
ag73
ag137
ag138
ag317
ag74
ag75
ag139
ag219
ag140
ag320
ag76
ag77
ag274
ag204
ag205
ag313
ag206
ag185
ag186
ag187
ag346
ag207
ag110
ag277
ag374
ag141
ag142
ag188
ag89
ag189
ag190
ag90
ag91
ag192
ag151
ag193
ag321
ag211
ag220
ag112
asg362
(lp524
g295
ag117
ag224
ag285
ag225
ag290
ag46
ag128
ag239
ag216
ag131
ag133
ag240
ag134
ag242
ag363
ag109
ag291
ag137
ag138
ag139
ag140
ag141
ag142
ag188
ag144
ag145
ag243
ag244
ag147
ag90
ag91
ag208
ag194
asg156
(lp525
g222
ag5
ag6
ag235
ag100
ag120
ag227
ag103
ag281
ag32
ag126
ag229
ag45
ag174
ag106
ag51
ag217
ag107
ag56
ag363
ag136
ag291
ag230
ag231
ag303
ag206
ag144
ag232
ag146
ag147
ag292
ag90
ag91
asg184
(lp526
g222
ag98
ag99
ag6
ag295
ag236
ag237
ag224
ag285
ag125
ag127
ag216
ag106
ag130
ag175
ag132
ag109
ag231
ag143
ag188
ag146
ag90
ag91
asg191
(lp527
g222
ag5
ag6
ag119
ag236
ag225
ag226
ag102
ag103
ag281
ag43
ag125
ag127
ag105
ag128
ag239
ag51
ag130
ag131
ag133
ag240
ag134
ag242
ag135
ag71
ag317
ag230
ag110
ag141
ag142
ag188
ag243
ag244
ag146
ag147
ag208
ag321
ag322
asg241
(lp528
g197
ag200
ag201
ag164
ag122
ag32
ag33
ag48
ag174
ag203
ag216
ag217
ag333
ag179
ag180
ag334
ag60
ag72
ag204
ag303
ag304
ag207
ag305
ag306
ag232
ag292
ag148
ag149
ag209
ag210
ag211
ag220
asg34
(lp529
g100
ag236
ag237
ag101
ag102
ag103
ag43
ag104
ag125
ag127
ag128
ag51
ag175
ag132
ag134
ag71
ag110
ag143
ag188
ag1
ag146
ag208
ag321
asg38
(lp530
g98
ag99
ag236
ag237
ag325
ag45
ag175
ag132
ag107
ag55
ag56
ag71
ag218
ag206
ag188
ag1
ag146
ag90
ag91
ag111
ag321
ag210
ag220
asg158
(lp531
g222
ag5
ag6
ag224
ag285
ag281
ag43
ag125
ag127
ag128
ag216
ag130
ag133
ag134
ag231
ag141
ag142
ag143
ag147
ag90
ag91
ag208
ag194
asg134
(lp532
g153
ag365
ag197
ag98
ag113
ag200
ag158
ag159
ag201
ag214
ag312
ag19
ag349
ag236
ag237
ag120
ag224
ag238
ag163
ag285
ag164
ag32
ag33
ag325
ag34
ag35
ag36
ag171
ag172
ag105
ag203
ag372
ag373
ag216
ag380
ag175
ag132
ag177
ag178
ag58
ag59
ag60
ag61
ag368
ag109
ag362
ag69
ag70
ag71
ag72
ag218
ag274
ag204
ag303
ag304
ag205
ag207
ag305
ag306
ag188
ag89
ag191
ag146
ag308
ag309
ag321
ag209
ag322
ag210
ag211
ag94
asg11
(lp533
g98
ag99
ag198
ag235
ag201
ag237
ag227
ag215
ag45
ag106
ag217
ag175
ag132
ag108
ag188
ag1
ag146
ag209
ag210
asg328
(lp534
g235
ag236
ag101
ag102
ag227
ag168
ag43
ag125
ag45
ag128
ag106
ag175
ag132
ag56
ag334
ag363
ag143
ag321
ag322
asg76
(lp535
g235
ag224
ag103
ag281
ag216
ag51
ag107
ag56
ag109
ag218
ag317
ag230
ag188
ag1
ag208
asg75
(lp536
g222
ag5
ag6
ag295
ag100
ag236
ag237
ag227
ag290
ag261
ag43
ag216
ag175
ag132
ag109
ag291
ag188
ag232
ag1
ag146
ag292
ag148
asg256
(lp537
g98
ag99
ag235
ag236
ag237
ag227
ag215
ag104
ag45
ag106
ag217
ag108
ag206
ag110
ag143
ag188
ag146
ag209
ag210
asg21
(lp538
g5
ag6
ag237
ag227
ag281
ag43
ag216
ag106
ag175
ag109
ag230
ag231
ag188
ag1
ag146
ag90
ag91
ag208
asg177
(lp539
g222
ag98
ag99
ag6
ag295
ag236
ag237
ag224
ag285
ag125
ag127
ag216
ag130
ag175
ag132
ag134
ag109
ag143
ag188
ag146
ag91
ag194
asg192
(lp540
g222
ag98
ag99
ag5
ag6
ag116
ag100
ag236
ag237
ag224
ag285
ag227
ag281
ag43
ag125
ag127
ag216
ag106
ag175
ag132
ag109
ag231
ag143
ag188
ag146
ag90
ag91
ag208
asS'000898_Nav'
p541
(lp542
sg234
(lp543
g98
ag99
ag115
ag116
ag227
ag32
ag33
ag45
ag128
ag216
ag51
ag56
ag291
ag320
ag231
ag308
ag309
asg342
(lp544
g235
ag202
ag312
ag101
ag102
ag103
ag281
ag122
ag104
ag126
ag229
ag171
ag172
ag48
ag217
ag108
ag60
ag109
ag72
ag320
ag292
ag148
ag149
ag321
ag322
ag112
asg25
(lp545
g100
ag237
ag224
ag103
ag281
ag216
ag175
ag107
ag109
ag230
ag188
ag1
ag90
ag91
ag208
asg321
(lp546
g9
ag10
ag460
ag461
ag249
ag250
ag223
ag345
ag119
ag251
ag16
ag164
ag225
ag226
ag337
ag252
ag122
ag389
ag34
ag228
ag38
ag126
ag229
ag44
ag262
ag372
ag373
ag216
ag106
ag265
ag50
ag366
ag240
ag52
ag53
ag178
ag134
ag268
ag135
ag60
ag434
ag401
ag63
ag270
ag328
ag109
ag67
ag68
ag69
ag411
ag412
ag272
ag273
ag275
ag276
ag342
ag390
ag346
ag86
ag87
ag88
ag191
ag94
ag95
ag96
asg263
(lp547
g236
ag237
ag225
ag227
ag168
ag43
ag128
ag106
ag175
ag132
ag363
ag206
ag110
ag143
asg58
(lp548
g100
ag119
ag236
ag237
ag101
ag102
ag227
ag215
ag104
ag128
ag106
ag51
ag175
ag132
ag134
ag108
ag109
ag110
ag143
ag1
ag208
ag210
ag112
asg239
(lp549
g153
ag365
ag197
ag198
ag199
ag200
ag159
ag201
ag161
ag349
ag164
ag215
ag122
ag32
ag33
ag105
ag203
ag380
ag51
ag217
ag55
ag56
ag333
ag179
ag334
ag60
ag109
ag362
ag71
ag72
ag274
ag204
ag303
ag304
ag205
ag305
ag306
ag191
ag232
ag292
ag90
ag148
ag91
ag149
ag209
ag211
asg257
(lp550
g98
ag99
ag116
ag235
ag100
ag236
ag237
ag224
ag285
ag227
ag103
ag281
ag125
ag216
ag106
ag51
ag217
ag132
ag230
ag231
ag143
ag146
ag90
ag91
ag208
asS'000812_Nav'
p551
(lp552
sg346
(lp553
g235
ag202
ag101
ag102
ag103
ag281
ag45
ag216
ag51
ag56
ag334
ag109
ag72
ag219
ag206
ag232
ag321
ag210
ag112
asg4
(lp554
g98
ag99
ag235
ag100
ag236
ag237
ag101
ag227
ag104
ag106
ag51
ag175
ag132
ag56
ag108
ag110
ag143
ag188
ag1
ag146
ag208
ag111
ag112
asg224
(lp555
g153
ag365
ag197
ag98
ag99
ag9
ag10
ag155
ag14
ag15
ag235
ag100
ag158
ag159
ag119
ag251
ag16
ag202
ag17
ag160
ag214
ag312
ag20
ag161
ag349
ag162
ag163
ag225
ag226
ag337
ag252
ag253
ag165
ag166
ag167
ag168
ag122
ag25
ag26
ag169
ag257
ag371
ag325
ag42
ag170
ag126
ag229
ag171
ag172
ag173
ag49
ag174
ag203
ag216
ag380
ag106
ag50
ag217
ag366
ag367
ag176
ag240
ag107
ag177
ag267
ag134
ag54
ag55
ag179
ag180
ag135
ag269
ag62
ag368
ag109
ag350
ag362
ag184
ag73
ag218
ag219
ag76
ag77
ag274
ag204
ag275
ag276
ag186
ag207
ag189
ag190
ag208
ag149
ag192
ag193
asg166
(lp556
g222
ag98
ag99
ag5
ag6
ag100
ag236
ag237
ag224
ag227
ag281
ag43
ag125
ag216
ag106
ag175
ag132
ag109
ag231
ag143
ag188
ag146
ag90
ag91
ag208
ag194
asg243
(lp557
g153
ag365
ag197
ag198
ag199
ag200
ag159
ag201
ag119
ag202
ag349
ag164
ag215
ag122
ag32
ag33
ag45
ag105
ag203
ag380
ag51
ag217
ag55
ag56
ag333
ag179
ag334
ag109
ag362
ag71
ag72
ag274
ag204
ag303
ag304
ag205
ag306
ag191
ag232
ag292
ag90
ag148
ag91
ag149
ag209
ag211
ag220
asg20
(lp558
g5
ag6
ag100
ag237
ag224
ag227
ag43
ag216
ag106
ag107
ag109
ag231
ag188
ag1
ag146
ag90
ag208
asg99
(lp559
g3
ag4
ag7
ag8
ag11
ag12
ag248
ag154
ag234
ag155
ag249
ag250
ag113
ag198
ag199
ag200
ag235
ag100
ag201
ag17
ag160
ag161
ag120
ag224
ag337
ag252
ag253
ag165
ag166
ag22
ag256
ag257
ag371
ag260
ag37
ag228
ag38
ag40
ag41
ag42
ag170
ag43
ag104
ag173
ag48
ag262
ag266
ag217
ag176
ag53
ag177
ag59
ag181
ag334
ag341
ag135
ag269
ag182
ag62
ag270
ag136
ag288
ag67
ag68
ag69
ag70
ag184
ag271
ag71
ag72
ag272
ag273
ag78
ag79
ag205
ag313
ag185
ag275
ag276
ag187
ag85
ag86
ag110
ag277
ag374
ag188
ag89
ag189
ag190
ag278
ag90
ag91
ag192
ag193
ag92
ag93
ag94
asg142
(lp560
g153
ag365
ag311
ag113
ag199
ag158
ag159
ag161
ag349
ag164
ag215
ag122
ag169
ag32
ag105
ag174
ag216
ag380
ag217
ag367
ag333
ag181
ag60
ag61
ag109
ag362
ag71
ag274
ag204
ag303
ag304
ag205
ag313
ag305
ag306
ag191
ag232
ag292
ag148
ag208
ag149
asg277
(lp561
g98
ag99
ag5
ag100
ag236
ag237
ag227
ag281
ag216
ag109
ag231
ag188
ag146
asg124
(lp562
g197
ag113
ag199
ag200
ag201
ag202
ag238
ag325
ag36
ag171
ag172
ag55
ag61
ag205
ag110
ag111
ag194
ag211
asg140
(lp563
g197
ag311
ag113
ag198
ag199
ag200
ag215
ag105
ag174
ag203
ag216
ag333
ag179
ag180
ag61
ag362
ag205
ag110
ag208
asg51
(lp564
g3
ag4
ag460
ag461
ag234
ag336
ag245
ag156
ag157
ag14
ag15
ag223
ag345
ag251
ag16
ag214
ag312
ag122
ag27
ag28
ag29
ag257
ag32
ag258
ag371
ag33
ag259
ag462
ag389
ag260
ag34
ag297
ag171
ag172
ag239
ag216
ag106
ag265
ag266
ag133
ag367
ag52
ag53
ag54
ag55
ag195
ag299
ag300
ag58
ag59
ag268
ag341
ag63
ag136
ag368
ag350
ag66
ag385
ag291
ag67
ag68
ag69
ag70
ag76
ag77
ag303
ag304
ag81
ag390
ag346
ag323
ag83
ag84
ag85
ag86
ag87
ag88
ag305
ag306
ag307
ag191
ag243
ag244
ag1
ag146
ag391
ag392
ag147
ag308
ag309
ag95
asg371
(lp565
g222
ag98
ag99
ag116
ag235
ag100
ag236
ag224
ag285
ag227
ag103
ag281
ag125
ag216
ag106
ag51
ag217
ag230
ag231
ag143
ag146
ag90
ag91
ag208
asg292
(lp566
g460
ag461
ag156
ag157
ag13
ag199
ag200
ag235
ag18
ag19
ag162
ag163
ag24
ag462
ag338
ag339
ag35
ag127
ag45
ag239
ag217
ag133
ag240
ag241
ag55
ag108
ag363
ag434
ag401
ag385
ag288
ag74
ag75
ag205
ag313
ag206
ag185
ag342
ag187
ag374
ag141
ag142
ag188
ag89
ag243
ag244
ag391
ag392
ag147
ag211
ag220
asg45
(lp567
g7
ag8
ag460
ag461
ag11
ag12
ag234
ag156
ag157
ag223
ag345
ag251
ag16
ag282
ag348
ag225
ag226
ag337
ag252
ag28
ag29
ag30
ag254
ag256
ag258
ag259
ag462
ag389
ag338
ag339
ag260
ag228
ag38
ag40
ag41
ag297
ag126
ag262
ag265
ag266
ag366
ag298
ag367
ag52
ag301
ag270
ag136
ag328
ag66
ag385
ag411
ag272
ag78
ag79
ag81
ag82
ag275
ag276
ag346
ag323
ag83
ag84
ag87
ag88
ag188
ag307
ag232
ag243
ag244
ag1
ag146
ag391
ag392
ag292
ag148
ag111
ag92
ag93
asg164
(lp568
g222
ag5
ag6
ag117
ag119
ag225
ag226
ag103
ag281
ag43
ag46
ag105
ag239
ag130
ag131
ag133
ag240
ag241
ag134
ag242
ag135
ag71
ag317
ag230
ag231
ag141
ag142
ag188
ag243
ag244
ag146
ag147
ag208
ag321
ag322
asg201
(lp569
g98
ag99
ag11
ag12
ag115
ag116
ag117
ag118
ag286
ag119
ag120
ag32
ag33
ag123
ag124
ag39
ag40
ag41
ag46
ag128
ag239
ag129
ag133
ag298
ag240
ag241
ag134
ag242
ag195
ag299
ag301
ag363
ag64
ag65
ag109
ag302
ag385
ag78
ag303
ag304
ag143
ag307
ag232
ag243
ag244
ag308
ag309
ag149
ag150
ag151
ag92
ag93
asg340
(lp570
g235
ag227
ag104
ag125
ag127
ag105
ag128
ag106
ag242
ag334
ag72
ag317
ag230
ag143
ag188
ag90
ag91
ag208
ag111
asg238
(lp571
g222
ag295
ag117
ag118
ag119
ag227
ag290
ag121
ag254
ag255
ag32
ag33
ag124
ag261
ag228
ag39
ag126
ag229
ag172
ag46
ag48
ag174
ag106
ag130
ag131
ag366
ag134
ag135
ag64
ag65
ag109
ag218
ag78
ag79
ag147
ag90
ag91
ag151
asg412
(lp572
g215
ag325
ag171
ag172
ag105
ag334
ag109
ag72
ag206
ag90
ag321
ag210
asg250
(lp573
g98
ag99
ag116
ag312
ag236
ag237
ag101
ag105
ag175
ag132
ag107
ag334
ag71
ag72
ag218
ag219
ag206
ag188
ag146
ag90
ag194
ag321
ag210
ag112
asg155
(lp574
g222
ag98
ag99
ag5
ag6
ag100
ag236
ag237
ag224
ag285
ag43
ag125
ag127
ag216
ag130
ag132
ag231
ag143
ag146
ag91
ag208
ag194
asg255
(lp575
g198
ag236
ag237
ag238
ag227
ag104
ag128
ag106
ag175
ag132
ag108
ag320
ag206
ag110
ag143
ag188
ag209
ag210
asg163
(lp576
g222
ag5
ag6
ag295
ag119
ag224
ag285
ag122
ag39
ag43
ag104
ag216
ag106
ag107
ag134
ag135
ag188
ag232
ag292
ag90
ag91
asg154
(lp577
g222
ag98
ag99
ag5
ag6
ag100
ag236
ag237
ag227
ag281
ag43
ag216
ag106
ag175
ag132
ag230
ag231
ag188
ag146
ag90
ag208
ag194
asg105
(lp578
g311
ag286
ag250
ag345
ag119
ag16
ag202
ag312
ag164
ag337
ag252
ag227
ag30
ag31
ag462
ag389
ag37
ag297
ag125
ag127
ag44
ag47
ag372
ag373
ag239
ag106
ag133
ag298
ag367
ag52
ag53
ag134
ag340
ag333
ag195
ag299
ag341
ag135
ag301
ag63
ag270
ag368
ag350
ag411
ag412
ag139
ag140
ag275
ag276
ag323
ag83
ag84
ag85
ag86
ag87
ag88
ag141
ag142
ag188
ag307
ag191
ag243
ag244
ag391
ag392
ag147
ag309
ag150
ag94
asS'519163_Nav'
p579
(lp580
sg59
(lp581
g98
ag99
ag100
ag119
ag236
ag237
ag101
ag102
ag227
ag215
ag104
ag128
ag106
ag51
ag175
ag132
ag134
ag108
ag109
ag71
ag110
ag143
ag1
ag208
ag210
ag112
asg36
(lp582
g117
ag118
ag119
ag290
ag121
ag123
ag124
ag261
ag228
ag39
ag125
ag126
ag229
ag46
ag130
ag131
ag133
ag107
ag134
ag195
ag135
ag64
ag138
ag141
ag188
ag144
ag145
ag1
ag147
ag148
ag91
ag149
asg132
(lp583
g3
ag4
ag5
ag7
ag8
ag9
ag11
ag248
ag154
ag115
ag116
ag336
ag245
ag155
ag249
ag250
ag113
ag119
ag17
ag160
ag18
ag19
ag161
ag337
ag252
ag253
ag165
ag166
ag22
ag23
ag24
ag122
ag26
ag254
ag255
ag257
ag32
ag33
ag123
ag34
ag261
ag37
ag38
ag42
ag170
ag43
ag104
ag173
ag48
ag262
ag49
ag263
ag264
ag372
ag373
ag265
ag266
ag366
ag176
ag53
ag177
ag267
ag178
ag134
ag58
ag59
ag268
ag341
ag135
ag61
ag269
ag62
ag63
ag270
ag328
ag66
ag67
ag68
ag69
ag70
ag184
ag271
ag73
ag272
ag273
ag74
ag75
ag274
ag204
ag78
ag79
ag185
ag275
ag276
ag186
ag187
ag207
ag87
ag89
ag189
ag190
ag279
ag192
ag193
ag94
asg367
(lp584
g222
ag235
ag224
ag225
ag102
ag215
ag125
ag127
ag45
ag105
ag128
ag51
ag217
ag133
ag242
ag56
ag334
ag363
ag71
ag72
ag317
ag141
ag142
ag143
ag90
ag322
ag112
asg148
(lp585
g460
ag461
ag157
ag113
ag199
ag200
ag235
ag162
ag225
ag226
ag167
ag338
ag339
ag35
ag36
ag104
ag125
ag127
ag45
ag239
ag217
ag133
ag240
ag241
ag55
ag108
ag363
ag61
ag385
ag288
ag74
ag75
ag80
ag206
ag185
ag342
ag187
ag141
ag142
ag188
ag89
ag243
ag244
ag147
ag211
ag220
asg55
(lp586
g222
ag5
ag6
ag295
ag115
ag116
ag118
ag223
ag119
ag120
ag224
ag285
ag225
ag226
ag27
ag28
ag29
ag32
ag33
ag123
ag124
ag261
ag38
ag39
ag43
ag297
ag46
ag48
ag239
ag106
ag51
ag130
ag131
ag133
ag107
ag56
ag300
ag135
ag64
ag218
ag83
ag188
ag144
ag145
ag243
ag244
ag1
ag147
ag292
ag148
ag149
ag150
ag151
asg180
(lp587
g5
ag6
ag295
ag460
ag461
ag115
ag116
ag117
ag118
ag224
ag285
ag225
ag226
ag290
ag103
ag281
ag462
ag43
ag126
ag216
ag131
ag298
ag240
ag241
ag301
ag385
ag291
ag138
ag139
ag140
ag307
ag145
ag391
ag392
ag90
ag91
ag208
ag150
ag111
asg348
(lp588
g235
ag100
ag215
ag45
ag106
ag107
ag56
ag110
ag188
ag208
ag111
ag209
ag210
asg30
(lp589
g235
ag215
ag43
ag104
ag45
ag105
ag216
ag106
ag217
ag107
ag108
ag206
ag110
ag188
ag1
ag146
ag194
ag210
asS'000889_Nav'
p590
(lp591
sg268
(lp592
g235
ag100
ag236
ag237
ag101
ag102
ag227
ag104
ag128
ag106
ag51
ag175
ag132
ag71
ag143
ag188
ag146
ag321
ag112
asg93
(lp593
g98
ag99
ag198
ag235
ag201
ag104
ag45
ag106
ag217
ag107
ag108
ag206
ag1
ag146
ag209
asg299
(lp594
g198
ag200
ag201
ag202
ag215
ag171
ag172
ag105
ag51
ag109
ag71
ag72
ag206
ag207
ag208
ag209
ag210
ag211
ag220
asg227
(lp595
g3
ag4
ag11
ag12
ag248
ag154
ag234
ag336
ag245
ag156
ag157
ag13
ag119
ag17
ag160
ag18
ag19
ag20
ag238
ag253
ag165
ag166
ag21
ag22
ag215
ag23
ag24
ag122
ag26
ag254
ag255
ag256
ag257
ag258
ag371
ag259
ag123
ag35
ag261
ag42
ag105
ag173
ag48
ag262
ag49
ag174
ag263
ag264
ag265
ag217
ag366
ag176
ag53
ag54
ag340
ag58
ag59
ag268
ag269
ag182
ag62
ag328
ag368
ag109
ag350
ag66
ag288
ag69
ag70
ag71
ag72
ag73
ag272
ag74
ag75
ag80
ag185
ag187
ag110
ag277
ag374
ag89
ag278
ag279
ag90
ag91
ag149
ag192
ag94
asg307
(lp596
g198
ag200
ag201
ag202
ag215
ag45
ag105
ag51
ag217
ag56
ag180
ag109
ag71
ag72
ag206
ag208
ag209
ag210
ag220
asS'519162_Nav'
p597
(lp598
sg66
(lp599
g235
ag100
ag236
ag237
ag227
ag215
ag104
ag45
ag51
ag175
ag132
ag56
ag110
ag143
ag188
ag1
ag146
ag210
asg179
(lp600
g5
ag6
ag295
ag115
ag116
ag117
ag100
ag224
ag285
ag225
ag226
ag103
ag281
ag43
ag239
ag216
ag130
ag131
ag298
ag241
ag242
ag301
ag363
ag385
ag291
ag137
ag138
ag139
ag140
ag144
ag145
ag243
ag244
ag90
ag91
ag208
ag111
ag194
asg372
(lp601
g222
ag5
ag236
ag102
ag103
ag281
ag43
ag125
ag127
ag105
ag128
ag175
ag132
ag133
ag134
ag242
ag71
ag317
ag141
ag188
ag146
ag147
ag208
ag321
ag322
asg31
(lp602
g235
ag215
ag43
ag104
ag105
ag216
ag106
ag217
ag107
ag108
ag206
ag110
ag188
ag1
ag146
ag111
ag194
ag210
asg269
(lp603
g98
ag99
ag5
ag100
ag236
ag237
ag224
ag285
ag227
ag103
ag281
ag43
ag216
ag106
ag175
ag132
ag231
ag188
ag146
ag90
ag91
ag208
ag194
asg123
(lp604
g113
ag198
ag201
ag227
ag167
ag168
ag35
ag36
ag104
ag128
ag106
ag175
ag132
ag178
ag55
ag242
ag108
ag363
ag61
ag219
ag320
ag110
ag143
ag188
ag209
ag220
asg78
(lp605
g98
ag99
ag198
ag201
ag312
ag236
ag237
ag238
ag45
ag175
ag132
ag56
ag219
ag206
ag110
ag188
ag1
ag146
ag90
ag209
ag210
asg205
(lp606
g98
ag99
ag116
ag117
ag120
ag121
ag124
ag261
ag39
ag125
ag127
ag46
ag128
ag239
ag216
ag131
ag133
ag134
ag195
ag291
ag137
ag138
ag139
ag140
ag141
ag142
ag143
ag144
ag145
ag243
ag244
ag147
ag292
ag150
ag151
asg80
(lp607
g222
ag295
ag115
ag116
ag237
ag120
ag227
ag290
ag32
ag33
ag261
ag125
ag48
ag106
ag130
ag175
ag107
ag136
ag109
ag291
ag137
ag138
ag303
ag304
ag1
ag146
ag148
asg266
(lp608
g98
ag99
ag115
ag116
ag236
ag237
ag101
ag102
ag45
ag51
ag175
ag132
ag107
ag56
ag108
ag109
ag72
ag317
ag320
ag188
ag146
ag322
ag112
asg119
(lp609
g365
ag197
ag113
ag198
ag201
ag202
ag214
ag312
ag18
ag19
ag236
ag224
ag238
ag162
ag163
ag285
ag164
ag227
ag167
ag168
ag32
ag33
ag325
ag338
ag339
ag35
ag36
ag125
ag127
ag105
ag48
ag128
ag174
ag203
ag175
ag132
ag107
ag54
ag55
ag333
ag58
ag59
ag334
ag363
ag60
ag61
ag385
ag291
ag288
ag71
ag72
ag137
ag138
ag218
ag303
ag304
ag143
ag188
ag89
ag191
ag243
ag244
ag111
ag194
ag321
ag322
ag210
ag211
ag94
asg149
(lp610
g113
ag198
ag201
ag18
ag19
ag120
ag224
ag285
ag227
ag167
ag168
ag338
ag339
ag35
ag36
ag43
ag125
ag127
ag128
ag239
ag106
ag133
ag241
ag267
ag54
ag55
ag242
ag57
ag334
ag61
ag385
ag291
ag288
ag219
ag320
ag342
ag110
ag141
ag142
ag243
ag244
ag308
ag309
ag209
ag210
ag211
ag220
asg112
(lp611
g3
ag4
ag9
ag10
ag461
ag115
ag336
ag245
ag250
ag223
ag345
ag251
ag16
ag225
ag226
ag337
ag252
ag122
ag32
ag33
ag126
ag229
ag48
ag262
ag216
ag265
ag50
ag266
ag366
ag367
ag52
ag58
ag59
ag268
ag363
ag63
ag270
ag368
ag350
ag67
ag68
ag69
ag70
ag272
ag303
ag304
ag275
ag276
ag342
ag390
ag346
ag83
ag84
ag85
ag86
ag87
ag88
ag305
ag306
ag188
ag95
ag96
asg322
(lp612
g9
ag10
ag223
ag345
ag119
ag164
ag225
ag226
ag337
ag252
ag37
ag126
ag229
ag44
ag372
ag373
ag265
ag50
ag266
ag366
ag367
ag240
ag52
ag53
ag178
ag134
ag341
ag135
ag270
ag328
ag109
ag350
ag272
ag275
ag276
ag342
ag87
ag88
ag191
ag94
ag95
ag96
asg48
(lp613
g98
ag99
ag5
ag157
ag198
ag235
ag100
ag119
ag312
ag236
ag237
ag238
ag101
ag102
ag227
ag103
ag281
ag43
ag104
ag44
ag128
ag216
ag106
ag132
ag240
ag241
ag55
ag108
ag109
ag71
ag317
ag80
ag342
ag110
ag143
ag1
ag146
ag90
ag91
ag208
ag209
ag210
ag112
asg151
(lp614
g113
ag199
ag200
ag201
ag202
ag214
ag238
ag325
ag104
ag171
ag172
ag216
ag55
ag61
ag205
ag110
ag111
ag194
ag211
ag220
asg96
(lp615
g116
ag235
ag101
ag102
ag104
ag126
ag229
ag174
ag217
ag334
ag71
ag72
ag218
ag320
ag188
ag1
ag208
ag321
ag322
ag112
asg349
(lp616
g117
ag224
ag285
ag225
ag127
ag128
ag239
ag216
ag130
ag131
ag133
ag134
ag363
ag137
ag138
ag231
ag141
ag142
ag144
ag145
ag243
ag244
ag147
ag90
ag91
ag208
ag111
ag194
asg460
(lp617
g202
ag101
ag325
ag45
ag51
ag217
ag56
ag180
ag334
ag109
ag72
ag206
ag232
ag292
ag90
ag148
ag91
ag208
ag321
ag210
ag220
asg84
(lp618
g312
ag101
ag215
ag45
ag105
ag51
ag217
ag107
ag56
ag71
ag72
ag218
ag219
ag320
ag1
ag194
ag112
asg7
(lp619
g98
ag99
ag235
ag236
ag237
ag168
ag215
ag45
ag106
ag217
ag175
ag132
ag108
ag320
ag110
ag1
ag146
ag210
asg127
(lp620
g311
ag336
ag245
ag155
ag113
ag223
ag158
ag159
ag119
ag161
ag349
ag215
ag122
ag169
ag32
ag33
ag34
ag261
ag105
ag372
ag373
ag380
ag217
ag366
ag367
ag177
ag340
ag181
ag60
ag61
ag182
ag183
ag63
ag368
ag109
ag350
ag288
ag184
ag271
ag71
ag274
ag304
ag205
ag313
ag186
ag390
ag110
ag305
ag306
ag89
ag190
ag191
ag292
ag148
ag149
ag192
ag193
asg210
(lp621
g7
ag8
ag460
ag461
ag11
ag12
ag115
ag116
ag286
ag249
ag250
ag119
ag251
ag16
ag282
ag348
ag122
ag27
ag28
ag29
ag30
ag31
ag254
ag255
ag256
ag32
ag258
ag33
ag259
ag462
ag389
ag338
ag339
ag260
ag228
ag38
ag297
ag126
ag44
ag47
ag48
ag240
ag241
ag134
ag242
ag195
ag299
ag58
ag59
ag135
ag363
ag434
ag401
ag109
ag212
ag66
ag411
ag412
ag78
ag79
ag303
ag304
ag81
ag82
ag346
ag323
ag305
ag306
ag307
ag278
ag279
ag343
ag391
ag392
ag308
ag309
ag149
asg42
(lp622
g222
ag98
ag99
ag5
ag6
ag100
ag236
ag237
ag224
ag285
ag227
ag281
ag43
ag216
ag106
ag175
ag132
ag230
ag231
ag1
ag146
ag90
ag91
ag208
ag194
asg341
(lp623
g98
ag99
ag235
ag312
ag236
ag102
ag104
ag105
ag128
ag51
ag175
ag132
ag108
ag334
ag72
ag317
ag230
ag188
ag146
ag90
ag91
ag208
ag111
ag322
asg100
(lp624
g3
ag4
ag98
ag99
ag248
ag154
ag336
ag245
ag329
ag155
ag156
ag157
ag14
ag15
ag17
ag160
ag282
ag348
ag20
ag236
ag237
ag224
ag285
ag253
ag165
ag166
ag25
ag26
ag169
ag257
ag32
ag371
ag33
ag338
ag339
ag34
ag42
ag171
ag172
ag173
ag48
ag49
ag128
ag174
ag176
ag107
ag53
ag267
ag242
ag57
ag58
ag59
ag179
ag181
ag334
ag268
ag363
ag269
ag182
ag183
ag63
ag368
ag350
ag66
ag291
ag69
ag70
ag73
ag74
ag75
ag304
ag185
ag186
ag187
ag85
ag86
ag110
ag277
ag374
ag305
ag306
ag188
ag343
ag90
ag91
ag192
ag193
ag111
ag194
asg434
(lp625
g202
ag101
ag215
ag171
ag174
ag217
ag334
ag109
ag72
ag206
ag232
ag292
ag90
ag208
ag321
ag210
ag220
asg138
(lp626
g153
ag365
ag197
ag311
ag113
ag119
ag349
ag215
ag169
ag36
ag174
ag203
ag216
ag380
ag217
ag333
ag179
ag180
ag181
ag61
ag109
ag288
ag362
ag204
ag80
ag205
ag313
ag185
ag187
ag207
ag208
ag194
asg304
(lp627
g222
ag157
ag198
ag100
ag201
ag119
ag225
ag226
ag167
ag168
ag215
ag104
ag127
ag239
ag51
ag130
ag131
ag133
ag240
ag241
ag134
ag242
ag135
ag363
ag80
ag141
ag142
ag188
ag243
ag244
ag146
ag147
ag208
ag210
ag112
asg92
(lp628
g98
ag99
ag198
ag235
ag201
ag237
ag104
ag45
ag106
ag217
ag107
ag108
ag206
ag1
ag146
ag209
asS'161824_Nav'
p629
(lp630
sg229
(lp631
g365
ag197
ag156
ag198
ag200
ag224
ag238
ag285
ag101
ag102
ag167
ag168
ag338
ag339
ag36
ag44
ag172
ag203
ag217
ag54
ag242
ag334
ag72
ag317
ag230
ag274
ag204
ag206
ag342
ag207
ag143
ag146
ag321
ag322
ag220
ag112
ag96
asg279
(lp632
g198
ag236
ag237
ag225
ag227
ag168
ag43
ag128
ag175
ag132
ag363
ag206
ag110
ag143
ag188
ag210
asg79
(lp633
g98
ag99
ag198
ag312
ag236
ag237
ag238
ag45
ag132
ag56
ag219
ag110
ag188
ag1
ag146
ag90
ag91
ag209
ag210
asg135
(lp634
g197
ag98
ag99
ag113
ag198
ag202
ag312
ag236
ag237
ag120
ag224
ag238
ag162
ag163
ag285
ag164
ag168
ag32
ag35
ag36
ag104
ag105
ag128
ag174
ag175
ag132
ag107
ag55
ag242
ag333
ag108
ag363
ag60
ag61
ag291
ag69
ag71
ag72
ag218
ag303
ag304
ag143
ag191
ag308
ag90
ag309
ag111
ag194
ag321
ag209
ag322
ag210
ag211
ag220
asg63
(lp635
g100
ag236
ag237
ag101
ag102
ag103
ag43
ag104
ag125
ag127
ag105
ag128
ag51
ag175
ag132
ag71
ag110
ag143
ag188
ag1
ag146
ag208
ag321
ag112
asS'000810_Nav'
p636
(lp637
sg89
(lp638
g98
ag99
ag295
ag119
ag236
ag237
ag227
ag290
ag121
ag261
ag125
ag127
ag46
ag216
ag106
ag130
ag131
ag175
ag132
ag134
ag109
ag143
ag188
ag232
ag1
ag146
ag292
ag148
asg391
(lp639
g200
ag202
ag45
ag105
ag51
ag217
ag56
ag180
ag334
ag109
ag71
ag72
ag206
ag207
ag232
ag292
ag90
ag209
ag210
ag220
asg98
(lp640
g3
ag4
ag5
ag7
ag8
ag11
ag12
ag248
ag154
ag234
ag155
ag249
ag250
ag113
ag198
ag199
ag200
ag235
ag100
ag201
ag17
ag160
ag282
ag19
ag120
ag224
ag337
ag252
ag253
ag165
ag166
ag22
ag256
ag257
ag371
ag260
ag37
ag228
ag38
ag40
ag41
ag42
ag170
ag43
ag104
ag173
ag48
ag262
ag266
ag217
ag176
ag53
ag177
ag134
ag59
ag181
ag334
ag341
ag135
ag269
ag182
ag62
ag270
ag136
ag288
ag67
ag68
ag69
ag70
ag184
ag271
ag71
ag72
ag272
ag273
ag78
ag79
ag205
ag313
ag185
ag275
ag276
ag187
ag85
ag86
ag110
ag277
ag374
ag188
ag89
ag189
ag190
ag90
ag91
ag192
ag193
ag92
ag93
ag94
asg170
(lp641
g222
ag98
ag99
ag5
ag6
ag236
ag237
ag224
ag285
ag281
ag43
ag125
ag216
ag175
ag132
ag231
ag143
ag146
ag90
ag91
ag208
ag194
asg43
(lp642
g98
ag99
ag248
ag154
ag115
ag116
ag329
ag155
ag158
ag202
ag17
ag160
ag18
ag19
ag20
ag236
ag237
ag120
ag163
ag164
ag253
ag165
ag166
ag167
ag168
ag21
ag22
ag23
ag24
ag122
ag30
ag31
ag169
ag32
ag33
ag338
ag339
ag34
ag42
ag170
ag171
ag172
ag173
ag48
ag262
ag49
ag128
ag263
ag264
ag372
ag373
ag129
ag265
ag175
ag132
ag366
ag176
ag178
ag54
ag55
ag242
ag57
ag179
ag180
ag181
ag269
ag182
ag183
ag62
ag63
ag328
ag368
ag109
ag350
ag73
ag272
ag74
ag75
ag313
ag206
ag185
ag186
ag390
ag187
ag110
ag188
ag189
ag278
ag279
ag191
ag1
ag146
ag308
ag90
ag309
ag91
ag208
ag149
ag192
ag193
ag194
ag94
asg270
(lp643
g98
ag99
ag116
ag236
ag237
ag101
ag102
ag215
ag45
ag105
ag175
ag132
ag107
ag56
ag108
ag71
ag72
ag219
ag320
ag188
ag146
ag194
ag321
ag322
ag112
asg41
(lp644
g98
ag99
ag198
ag201
ag312
ag45
ag217
ag107
ag320
ag110
ag1
ag146
ag209
asg60
(lp645
g222
ag5
ag6
ag9
ag10
ag119
ag225
ag101
ag102
ag215
ag103
ag281
ag125
ag127
ag44
ag128
ag239
ag130
ag133
ag240
ag241
ag134
ag242
ag135
ag71
ag317
ag230
ag342
ag110
ag141
ag142
ag143
ag1
ag146
ag147
ag90
ag208
ag321
asg178
(lp646
g5
ag6
ag312
ag236
ag237
ag123
ag39
ag43
ag104
ag172
ag46
ag216
ag106
ag175
ag132
ag107
ag134
ag108
ag334
ag230
ag90
ag91
ag194
ag321
ag322
asg390
(lp647
g235
ag101
ag102
ag215
ag43
ag125
ag127
ag128
ag51
ag217
ag242
ag71
ag110
ag188
ag321
ag112
asg116
(lp648
g153
ag9
ag10
ag234
ag249
ag250
ag113
ag198
ag199
ag201
ag337
ag252
ag103
ag281
ag122
ag257
ag371
ag325
ag43
ag44
ag47
ag50
ag266
ag175
ag132
ag366
ag107
ag54
ag55
ag179
ag180
ag181
ag270
ag109
ag71
ag218
ag219
ag320
ag80
ag205
ag185
ag275
ag276
ag187
ag207
ag110
ag90
ag91
ag192
ag193
ag209
ag210
ag211
ag220
ag96
asg12
(lp649
g98
ag99
ag198
ag235
ag201
ag237
ag227
ag215
ag45
ag106
ag217
ag175
ag108
ag110
ag188
ag1
ag146
ag209
ag210
asg188
(lp650
g3
ag4
ag98
ag99
ag5
ag6
ag9
ag10
ag11
ag12
ag248
ag154
ag336
ag245
ag329
ag157
ag249
ag250
ag13
ag223
ag235
ag100
ag119
ag251
ag16
ag17
ag160
ag282
ag348
ag18
ag19
ag20
ag236
ag237
ag162
ag163
ag164
ag101
ag102
ag337
ag252
ag253
ag165
ag166
ag21
ag22
ag23
ag24
ag103
ag281
ag122
ag25
ag26
ag29
ag30
ag31
ag254
ag255
ag256
ag169
ag258
ag259
ag123
ag338
ag339
ag260
ag34
ag35
ag36
ag261
ag228
ag38
ag43
ag45
ag105
ag173
ag47
ag262
ag49
ag128
ag372
ag373
ag216
ag50
ag266
ag176
ag52
ag53
ag177
ag134
ag54
ag55
ag340
ag242
ag333
ag57
ag268
ag341
ag61
ag269
ag182
ag62
ag63
ag270
ag64
ag65
ag66
ag288
ag362
ag67
ag68
ag69
ag70
ag184
ag271
ag72
ag73
ag272
ag317
ag230
ag74
ag75
ag76
ag77
ag274
ag78
ag79
ag303
ag304
ag81
ag82
ag275
ag276
ag186
ag390
ag187
ag87
ag88
ag110
ag277
ag374
ag305
ag306
ag89
ag189
ag190
ag278
ag279
ag191
ag343
ag232
ag292
ag148
ag192
ag193
ag111
ag194
ag211
ag220
ag94
ag112
ag95
ag96
asg82
(lp651
g312
ag215
ag104
ag45
ag217
ag107
ag56
ag320
ag206
ag188
ag1
ag111
ag210
asS'519740_Nav'
p652
(lp653
sg16
(lp654
g214
ag224
ag101
ag104
ag45
ag105
ag51
ag107
ag56
ag334
ag72
ag218
ag219
ag188
ag1
ag146
ag90
ag111
ag194
ag321
ag210
ag112
asg220
(lp655
g460
ag116
ag286
ag225
ag226
ag27
ag28
ag29
ag462
ag123
ag261
ag228
ag38
ag39
ag297
ag126
ag229
ag44
ag47
ag216
ag129
ag298
ag240
ag241
ag242
ag299
ag300
ag135
ag301
ag363
ag434
ag401
ag64
ag65
ag136
ag302
ag212
ag385
ag323
ag188
ag307
ag232
ag243
ag244
ag391
ag392
ag292
ag148
ag149
ag150
ag151
ag194
asg108
(lp656
g4
ag7
ag8
ag11
ag12
ag223
ag252
ag167
ag168
ag30
ag31
ag254
ag255
ag256
ag32
ag258
ag33
ag259
ag123
ag260
ag261
ag37
ag48
ag266
ag52
ag267
ag178
ag58
ag59
ag341
ag135
ag270
ag109
ag67
ag68
ag69
ag70
ag273
ag342
ag85
ag86
ag278
ag343
ag232
ag308
ag292
ag309
ag148
ag208
ag111
ag194
ag92
ag93
asS'000334_Nav'
p657
(lp658
sg32
(lp659
g222
ag234
ag156
ag157
ag113
ag198
ag235
ag100
ag201
ag119
ag236
ag237
ag238
ag225
ag226
ag43
ag104
ag125
ag127
ag44
ag46
ag128
ag239
ag51
ag130
ag175
ag132
ag133
ag240
ag241
ag134
ag55
ag242
ag57
ag108
ag135
ag80
ag185
ag187
ag141
ag142
ag243
ag244
ag1
ag146
ag147
ag208
ag209
ag210
ag112
asg303
(lp660
g222
ag156
ag157
ag198
ag201
ag119
ag225
ag226
ag167
ag168
ag215
ag104
ag239
ag51
ag130
ag131
ag133
ag240
ag241
ag134
ag57
ag135
ag363
ag385
ag80
ag141
ag142
ag188
ag243
ag244
ag146
ag147
ag208
ag210
ag112
asg144
(lp661
g153
ag365
ag197
ag156
ag157
ag113
ag199
ag159
ag202
ag349
ag215
ag35
ag36
ag203
ag380
ag217
ag55
ag333
ag179
ag181
ag61
ag109
ag362
ag274
ag204
ag205
ag313
ag207
ag110
ag208
asg86
(lp662
g98
ag99
ag100
ag101
ag102
ag103
ag104
ag105
ag106
ag51
ag107
ag108
ag109
ag71
ag1
ag111
ag321
ag112
asg209
(lp663
g11
ag12
ag115
ag116
ag118
ag286
ag282
ag348
ag27
ag28
ag29
ag254
ag255
ag256
ag32
ag258
ag33
ag259
ag462
ag123
ag40
ag41
ag297
ag44
ag46
ag47
ag48
ag239
ag298
ag240
ag241
ag134
ag242
ag195
ag299
ag300
ag135
ag301
ag363
ag109
ag302
ag212
ag385
ag78
ag79
ag323
ag307
ag278
ag343
ag243
ag244
ag391
ag392
ag308
ag309
ag149
ag92
ag93
asg334
(lp664
g98
ag99
ag460
ag461
ag249
ag250
ag223
ag235
ag100
ag345
ag119
ag251
ag16
ag337
ag252
ag122
ag27
ag28
ag29
ag462
ag389
ag338
ag339
ag37
ag297
ag126
ag229
ag44
ag171
ag172
ag47
ag262
ag128
ag174
ag239
ag106
ag265
ag217
ag133
ag366
ag367
ag240
ag107
ag241
ag52
ag53
ag178
ag340
ag242
ag333
ag300
ag341
ag363
ag434
ag401
ag328
ag368
ag350
ag385
ag411
ag412
ag272
ag218
ag273
ag346
ag87
ag88
ag143
ag243
ag244
ag391
ag392
ag149
ag150
ag94
ag96
asg8
(lp665
g98
ag99
ag235
ag236
ag237
ag168
ag215
ag104
ag45
ag106
ag217
ag175
ag132
ag56
ag108
ag110
ag143
ag1
ag146
ag210
asg10
(lp666
g115
ag116
ag312
ag224
ag101
ag102
ag215
ag174
ag175
ag60
ag109
ag72
ag218
ag206
ag188
ag1
ag146
ag321
ag322
ag112
asg117
(lp667
g153
ag365
ag197
ag113
ag199
ag201
ag202
ag349
ag238
ag164
ag35
ag36
ag203
ag380
ag54
ag333
ag179
ag180
ag61
ag362
ag274
ag204
ag205
ag207
ag111
ag194
asg57
(lp668
g222
ag5
ag6
ag295
ag100
ag312
ag290
ag32
ag33
ag261
ag43
ag175
ag107
ag109
ag218
ag303
ag188
ag1
ag149
asS'000914_Nav'
p669
(lp670
sg27
(lp671
g198
ag214
ag312
ag104
ag171
ag172
ag51
ag107
ag55
ag334
ag71
ag218
ag219
ag1
ag111
ag209
ag210
ag220
asg260
(lp672
g98
ag99
ag236
ag237
ag215
ag104
ag45
ag51
ag217
ag175
ag107
ag108
ag71
ag320
ag206
ag188
ag146
ag111
ag210
asg175
(lp673
g3
ag4
ag5
ag6
ag7
ag8
ag9
ag10
ag11
ag12
ag248
ag154
ag115
ag116
ag249
ag250
ag119
ag251
ag17
ag160
ag18
ag19
ag161
ag225
ag252
ag253
ag165
ag166
ag21
ag22
ag23
ag24
ag122
ag25
ag26
ag254
ag255
ag32
ag258
ag33
ag259
ag123
ag260
ag34
ag261
ag38
ag42
ag170
ag43
ag104
ag173
ag262
ag49
ag263
ag264
ag372
ag373
ag265
ag50
ag266
ag176
ag53
ag177
ag267
ag178
ag134
ag57
ag58
ag59
ag268
ag341
ag135
ag61
ag269
ag62
ag63
ag270
ag328
ag66
ag67
ag68
ag69
ag70
ag184
ag271
ag73
ag272
ag273
ag74
ag75
ag274
ag204
ag78
ag80
ag275
ag276
ag186
ag187
ag207
ag87
ag88
ag89
ag189
ag190
ag278
ag279
ag192
ag193
ag94
asg126
(lp674
g365
ag197
ag156
ag113
ag198
ag199
ag200
ag224
ag238
ag285
ag101
ag102
ag167
ag168
ag338
ag339
ag35
ag36
ag45
ag172
ag203
ag54
ag242
ag180
ag334
ag71
ag72
ag317
ag230
ag274
ag204
ag206
ag342
ag207
ag146
ag321
ag322
ag210
ag211
ag220
ag112
ag96
asg193
(lp675
g222
ag98
ag99
ag5
ag6
ag116
ag100
ag236
ag224
ag285
ag281
ag43
ag125
ag127
ag216
ag106
ag175
ag132
ag109
ag231
ag143
ag188
ag90
ag91
ag208
asg17
(lp676
g98
ag99
ag5
ag100
ag236
ag237
ag224
ag227
ag281
ag43
ag216
ag106
ag175
ag132
ag230
ag231
ag188
ag1
ag146
ag90
ag91
ag208
ag194
asg189
(lp677
g222
ag98
ag99
ag5
ag6
ag236
ag237
ag224
ag43
ag125
ag216
ag175
ag132
ag231
ag143
ag188
ag146
ag90
ag91
ag208
ag194
asS'000497_Nav'
p678
(lp679
sg46
(lp680
g365
ag197
ag113
ag198
ag199
ag200
ag201
ag202
ag238
ag164
ag167
ag168
ag32
ag33
ag35
ag36
ag171
ag172
ag174
ag203
ag178
ag55
ag333
ag61
ag288
ag362
ag205
ag207
ag110
ag89
ag1
ag146
ag111
ag194
ag209
asg18
(lp681
g222
ag6
ag295
ag119
ag236
ag237
ag227
ag290
ag43
ag216
ag106
ag130
ag175
ag132
ag109
ag188
ag232
ag1
ag292
ag149
asg101
(lp682
g3
ag4
ag9
ag10
ag460
ag461
ag250
ag223
ag345
ag251
ag16
ag225
ag226
ag337
ag252
ag122
ag389
ag338
ag339
ag34
ag126
ag229
ag48
ag262
ag216
ag265
ag50
ag266
ag366
ag240
ag52
ag58
ag59
ag268
ag363
ag60
ag434
ag401
ag63
ag270
ag328
ag67
ag68
ag69
ag70
ag272
ag275
ag276
ag342
ag390
ag346
ag83
ag84
ag85
ag86
ag87
ag88
ag188
ag95
ag96
asg290
(lp683
g365
ag197
ag311
ag214
ag18
ag19
ag238
ag325
ag35
ag36
ag171
ag172
ag203
ag380
ag333
ag57
ag180
ag181
ag288
ag362
ag271
ag74
ag75
ag80
ag313
ag185
ag187
ag207
ag374
ag89
ag111
ag194
asg301
(lp684
g197
ag198
ag199
ag200
ag201
ag202
ag215
ag45
ag105
ag203
ag217
ag179
ag180
ag109
ag71
ag207
ag208
ag209
ag211
ag220
asg411
(lp685
g215
ag325
ag45
ag171
ag172
ag105
ag334
ag109
ag72
ag206
ag90
ag321
ag210
asg176
(lp686
g222
ag98
ag99
ag5
ag6
ag100
ag236
ag237
ag224
ag227
ag281
ag43
ag216
ag106
ag175
ag132
ag231
ag188
ag146
ag90
ag91
ag208
ag194
asS'164302_Nav'
p687
(lp688
sg273
(lp689
g98
ag99
ag236
ag237
ag215
ag104
ag175
ag132
ag108
ag334
ag71
ag320
ag206
ag111
ag321
asg264
(lp690
g236
ag237
ag227
ag168
ag215
ag43
ag128
ag106
ag175
ag132
ag363
ag206
ag110
ag143
asg267
(lp691
g235
ag100
ag214
ag236
ag237
ag224
ag285
ag103
ag281
ag104
ag175
ag132
ag107
ag108
ag109
ag91
ag149
asg217
(lp692
g98
ag99
ag7
ag8
ag460
ag461
ag11
ag12
ag286
ag156
ag157
ag223
ag345
ag202
ag214
ag312
ag236
ag237
ag224
ag285
ag225
ag226
ag227
ag121
ag28
ag29
ag30
ag31
ag256
ag257
ag258
ag371
ag259
ag462
ag389
ag260
ag261
ag40
ag41
ag297
ag125
ag229
ag127
ag44
ag171
ag172
ag262
ag128
ag239
ag129
ag265
ag133
ag298
ag367
ag107
ag241
ag52
ag242
ag334
ag301
ag434
ag401
ag368
ag350
ag302
ag212
ag385
ag67
ag68
ag137
ag138
ag81
ag82
ag185
ag342
ag390
ag323
ag83
ag84
ag87
ag88
ag141
ag142
ag143
ag307
ag144
ag145
ag278
ag232
ag243
ag244
ag391
ag392
ag292
ag148
ag150
ag194
ag92
ag93
ag95
ag96
asg95
(lp693
g235
ag101
ag102
ag104
ag174
ag51
ag217
ag107
ag71
ag72
ag218
ag320
ag188
ag1
ag208
ag321
ag322
ag112
asg325
(lp694
g460
ag461
ag115
ag116
ag345
ag119
ag224
ag285
ag290
ag121
ag389
ag124
ag228
ag38
ag39
ag297
ag47
ag216
ag134
ag242
ag300
ag401
ag302
ag385
ag411
ag412
ag323
ag90
ag91
ag208
ag151
ag111
asg129
(lp695
g113
ag200
ag201
ag202
ag215
ag43
ag104
ag171
ag172
ag106
ag217
ag61
ag109
ag218
ag219
ag320
ag111
ag194
ag211
ag220
asg56
(lp696
g3
ag4
ag8
ag460
ag461
ag234
ag336
ag245
ag156
ag223
ag345
ag251
ag16
ag214
ag312
ag282
ag348
ag258
ag259
ag462
ag389
ag228
ag38
ag262
ag239
ag265
ag266
ag133
ag298
ag367
ag52
ag54
ag55
ag401
ag270
ag136
ag328
ag368
ag350
ag66
ag385
ag67
ag68
ag272
ag76
ag77
ag78
ag79
ag81
ag82
ag346
ag323
ag83
ag84
ag87
ag88
ag305
ag306
ag307
ag343
ag232
ag243
ag244
ag1
ag146
ag391
ag392
ag147
ag111
asg339
(lp697
g100
ag119
ag202
ag214
ag312
ag101
ag281
ag43
ag104
ag126
ag229
ag45
ag174
ag334
ag72
ag219
ag320
ag206
ag188
ag232
ag292
ag148
ag149
ag210
asg143
(lp698
g3
ag4
ag8
ag336
ag245
ag155
ag113
ag198
ag199
ag223
ag235
ag158
ag201
ag119
ag161
ag337
ag252
ag166
ag103
ag281
ag254
ag255
ag256
ag257
ag258
ag371
ag259
ag123
ag34
ag170
ag229
ag48
ag262
ag263
ag264
ag373
ag265
ag217
ag366
ag367
ag53
ag177
ag340
ag58
ag59
ag181
ag334
ag268
ag135
ag60
ag182
ag183
ag63
ag328
ag368
ag350
ag66
ag288
ag69
ag70
ag184
ag271
ag71
ag72
ag272
ag205
ag313
ag186
ag110
ag374
ag89
ag189
ag190
ag278
ag279
ag90
ag192
ag193
ag94
asg312
(lp699
g9
ag10
ag249
ag250
ag223
ag119
ag120
ag224
ag285
ag167
ag168
ag27
ag338
ag339
ag39
ag40
ag41
ag44
ag105
ag48
ag174
ag50
ag51
ag217
ag178
ag134
ag56
ag57
ag341
ag135
ag64
ag65
ag136
ag71
ag72
ag78
ag79
ag81
ag82
ag342
ag83
ag84
ag87
ag110
ag90
ag91
asS'519745_Nav'
p700
(lp701
sg87
(lp702
g312
ag236
ag237
ag101
ag102
ag215
ag45
ag105
ag51
ag217
ag175
ag132
ag107
ag56
ag334
ag71
ag72
ag219
ag206
ag188
ag1
ag146
ag90
ag194
ag321
ag322
ag112
asg147
(lp703
g156
ag157
ag113
ag198
ag158
ag159
ag161
ag349
ag238
ag164
ag169
ag32
ag33
ag35
ag36
ag105
ag372
ag373
ag380
ag51
ag54
ag55
ag56
ag333
ag181
ag60
ag61
ag109
ag362
ag271
ag71
ag72
ag303
ag304
ag205
ag313
ag186
ag305
ag306
ag190
ag191
ag232
ag292
ag90
ag148
ag91
ag208
asS'620009_Nav'
p704
(lp705
sg343
(lp706
g235
ag100
ag104
ag106
ag107
ag56
ag108
ag110
ag188
ag208
ag111
ag209
ag210
asg291
(lp707
g153
ag197
ag311
ag234
ag156
ag157
ag199
ag235
ag100
ag119
ag202
ag215
ag122
ag203
ag216
ag380
ag51
ag179
ag180
ag181
ag135
ag61
ag183
ag288
ag362
ag75
ag204
ag80
ag205
ag313
ag185
ag187
ag207
ag149
ag194
ag211
asg106
(lp708
g3
ag4
ag7
ag8
ag311
ag11
ag12
ag248
ag154
ag329
ag156
ag157
ag13
ag113
ag198
ag17
ag160
ag282
ag348
ag18
ag19
ag20
ag120
ag224
ag238
ag163
ag285
ag253
ag165
ag166
ag21
ag22
ag23
ag24
ag122
ag26
ag30
ag31
ag254
ag255
ag256
ag257
ag258
ag371
ag259
ag123
ag35
ag42
ag105
ag173
ag48
ag262
ag49
ag174
ag263
ag264
ag216
ag129
ag51
ag366
ag176
ag53
ag178
ag54
ag55
ag340
ag58
ag59
ag334
ag268
ag61
ag269
ag182
ag183
ag62
ag328
ag350
ag288
ag69
ag70
ag184
ag73
ag272
ag80
ag185
ag85
ag86
ag89
ag343
ag309
ag91
ag149
ag192
ag193
ag321
ag92
ag93
asg336
(lp709
g235
ag100
ag236
ag227
ag215
ag104
ag125
ag127
ag128
ag51
ag132
ag56
ag110
ag143
ag188
ag146
ag112
asg153
(lp710
g6
ag295
ag116
ag117
ag224
ag285
ag225
ag281
ag128
ag239
ag216
ag130
ag131
ag133
ag134
ag242
ag363
ag291
ag137
ag138
ag141
ag142
ag144
ag145
ag243
ag244
ag90
ag91
ag208
ag111
ag194
asg373
(lp711
g222
ag5
ag236
ag102
ag103
ag281
ag43
ag125
ag127
ag105
ag128
ag175
ag132
ag134
ag71
ag317
ag141
ag143
ag188
ag146
ag147
ag208
ag321
ag322
asg171
(lp712
g5
ag6
ag295
ag115
ag118
ag235
ag100
ag345
ag120
ag224
ag285
ag167
ag168
ag215
ag290
ag121
ag27
ag28
ag29
ag389
ag124
ag39
ag43
ag46
ag47
ag129
ag51
ag217
ag134
ag195
ag299
ag334
ag434
ag401
ag302
ag212
ag71
ag72
ag411
ag412
ag342
ag323
ag91
ag151
asg308
(lp713
g234
ag198
ag201
ag225
ag103
ag281
ag122
ag43
ag104
ag51
ag107
ag134
ag108
ag135
ag109
ag185
ag149
ag111
ag209
ag210
asg337
(lp714
g98
ag99
ag115
ag116
ag236
ag224
ag101
ag104
ag45
ag105
ag128
ag132
ag334
ag71
ag72
ag219
ag320
ag206
ag143
ag188
ag90
ag111
ag321
ag322
ag112
asg275
(lp715
g98
ag99
ag115
ag116
ag236
ag237
ag224
ag101
ag102
ag215
ag104
ag45
ag105
ag175
ag132
ag71
ag72
ag219
ag320
ag206
ag188
ag111
ag321
ag322
ag112
asg298
(lp716
g197
ag198
ag199
ag200
ag201
ag202
ag215
ag45
ag105
ag203
ag217
ag56
ag179
ag180
ag109
ag71
ag207
ag208
ag209
ag211
ag220
asg200
(lp717
g98
ag99
ag115
ag118
ag286
ag120
ag225
ag121
ag462
ag124
ag261
ag228
ag39
ag126
ag229
ag46
ag128
ag239
ag129
ag298
ag240
ag241
ag134
ag195
ag299
ag301
ag363
ag64
ag65
ag136
ag109
ag385
ag139
ag140
ag307
ag232
ag243
ag244
ag391
ag292
ag148
ag150
ag151
asg160
(lp718
g98
ag99
ag5
ag6
ag100
ag236
ag237
ag224
ag227
ag281
ag43
ag216
ag106
ag175
ag132
ag231
ag188
ag146
ag90
ag91
ag208
ag194
asg208
(lp719
g3
ag4
ag222
ag153
ag460
ag461
ag248
ag154
ag286
ag155
ag345
ag158
ag159
ag202
ag17
ag160
ag214
ag282
ag348
ag20
ag161
ag349
ag224
ag285
ag164
ag225
ag226
ag166
ag21
ag25
ag26
ag169
ag257
ag32
ag371
ag33
ag325
ag389
ag34
ag37
ag42
ag170
ag43
ag104
ag173
ag48
ag174
ag203
ag372
ag373
ag380
ag50
ag298
ag176
ag240
ag53
ag340
ag195
ag299
ag58
ag59
ag179
ag180
ag108
ag181
ag341
ag301
ag60
ag269
ag182
ag183
ag434
ag401
ag63
ag136
ag362
ag69
ag70
ag73
ag137
ag138
ag139
ag140
ag76
ag77
ag274
ag204
ag303
ag304
ag185
ag186
ag187
ag207
ag323
ag141
ag142
ag189
ag190
ag307
ag144
ag145
ag191
ag343
ag147
ag192
ag193
ag94
ag95
ag96
asS'519748_Nav'
p720
(lp721
sg141
(lp722
g153
ag365
ag311
ag113
ag199
ag158
ag159
ag161
ag349
ag164
ag215
ag122
ag169
ag32
ag33
ag36
ag105
ag174
ag372
ag373
ag216
ag380
ag217
ag367
ag333
ag181
ag60
ag61
ag109
ag362
ag271
ag71
ag274
ag204
ag303
ag304
ag205
ag313
ag305
ag306
ag191
ag232
ag292
ag148
ag208
ag149
asS'000899_Nav'
p723
(lp724
sS'000890_Nav'
p725
(lp726
sg211
(lp727
g116
ag118
ag286
ag119
ag225
ag121
ag124
ag261
ag39
ag126
ag47
ag128
ag239
ag216
ag129
ag298
ag240
ag241
ag134
ag242
ag195
ag299
ag135
ag301
ag64
ag65
ag109
ag291
ag188
ag232
ag243
ag244
ag292
ag148
ag149
ag150
ag151
asg204
(lp728
g295
ag117
ag236
ag224
ag285
ag225
ag226
ag126
ag229
ag128
ag239
ag216
ag131
ag175
ag132
ag240
ag241
ag134
ag195
ag363
ag291
ag137
ag138
ag231
ag141
ag142
ag144
ag145
ag243
ag244
ag208
ag111
ag194
asg67
(lp729
g98
ag99
ag235
ag236
ag237
ag101
ag104
ag51
ag217
ag175
ag132
ag56
ag108
ag71
ag188
ag1
ag111
ag321
ag112
asg259
(lp730
g198
ag235
ag236
ag237
ag227
ag215
ag104
ag45
ag128
ag106
ag51
ag217
ag175
ag56
ag108
ag110
ag143
ag188
ag146
ag209
ag210
asg300
(lp731
g198
ag202
ag215
ag325
ag51
ag55
ag334
ag109
ag71
ag72
ag194
ag209
ag220
asg389
(lp732
g101
ag215
ag325
ag45
ag171
ag172
ag105
ag51
ag217
ag56
ag334
ag109
ag71
ag72
ag206
ag90
ag208
ag321
ag210
asg244
(lp733
g153
ag365
ag197
ag198
ag199
ag200
ag159
ag201
ag119
ag202
ag349
ag164
ag215
ag122
ag32
ag33
ag45
ag105
ag203
ag380
ag51
ag217
ag55
ag56
ag333
ag179
ag334
ag109
ag362
ag71
ag72
ag274
ag204
ag303
ag304
ag205
ag306
ag191
ag232
ag292
ag90
ag148
ag91
ag149
ag209
ag211
ag220
asg215
(lp734
g7
ag8
ag9
ag10
ag11
ag12
ag336
ag245
ag286
ag282
ag348
ag120
ag227
ag30
ag31
ag256
ag258
ag259
ag389
ag260
ag297
ag125
ag127
ag44
ag171
ag172
ag47
ag174
ag264
ag239
ag129
ag265
ag50
ag133
ag298
ag367
ag240
ag299
ag300
ag58
ag59
ag301
ag60
ag434
ag401
ag270
ag136
ag109
ag302
ag212
ag66
ag291
ag411
ag412
ag272
ag137
ag138
ag218
ag273
ag139
ag140
ag303
ag304
ag81
ag82
ag275
ag276
ag390
ag83
ag84
ag87
ag141
ag142
ag305
ag306
ag307
ag144
ag145
ag278
ag243
ag244
ag91
ag150
asg109
(lp735
g222
ag365
ag197
ag9
ag10
ag460
ag461
ag116
ag329
ag286
ag157
ag13
ag113
ag198
ag199
ag200
ag201
ag18
ag19
ag20
ag224
ag238
ag285
ag225
ag226
ag227
ag253
ag165
ag166
ag21
ag215
ag23
ag24
ag25
ag26
ag462
ag389
ag43
ag104
ag297
ag125
ag127
ag47
ag48
ag49
ag239
ag129
ag50
ag130
ag266
ag131
ag133
ag298
ag177
ag267
ag134
ag54
ag333
ag195
ag299
ag57
ag300
ag58
ag59
ag108
ag181
ag301
ag61
ag62
ag434
ag401
ag136
ag288
ag362
ag184
ag271
ag411
ag412
ag73
ag137
ag138
ag74
ag75
ag219
ag320
ag76
ag77
ag80
ag206
ag185
ag342
ag187
ag346
ag323
ag85
ag86
ag110
ag277
ag374
ag141
ag142
ag89
ag307
ag144
ag145
ag243
ag244
ag391
ag392
ag147
ag308
ag90
ag309
ag91
ag192
ag193
ag321
ag209
ag322
ag210
ag211
asg145
(lp736
g153
ag365
ag197
ag157
ag113
ag199
ag159
ag202
ag349
ag215
ag36
ag203
ag380
ag217
ag55
ag333
ag179
ag180
ag61
ag109
ag362
ag274
ag204
ag205
ag313
ag207
ag110
ag208
asS'519743_Nav'
p737
(lp738
sg128
(lp739
g153
ag365
ag197
ag234
ag336
ag245
ag113
ag198
ag199
ag200
ag223
ag235
ag100
ag158
ag159
ag201
ag119
ag161
ag349
ag337
ag252
ag281
ag122
ag254
ag255
ag169
ag32
ag258
ag33
ag259
ag123
ag34
ag261
ag37
ag228
ag43
ag104
ag48
ag263
ag264
ag203
ag372
ag373
ag380
ag265
ag217
ag366
ag367
ag340
ag58
ag59
ag181
ag334
ag268
ag341
ag135
ag60
ag182
ag183
ag63
ag328
ag368
ag350
ag362
ag69
ag71
ag72
ag274
ag204
ag205
ag313
ag186
ag390
ag207
ag110
ag305
ag188
ag278
ag279
ag191
ag149
ag211
ag94
asg3
(lp740
g98
ag99
ag235
ag100
ag236
ag237
ag101
ag227
ag104
ag106
ag51
ag175
ag132
ag56
ag110
ag143
ag188
ag1
ag146
ag208
ag111
ag112
asg74
(lp741
g222
ag5
ag6
ag295
ag100
ag236
ag237
ag227
ag290
ag261
ag43
ag216
ag175
ag132
ag109
ag188
ag232
ag1
ag146
ag292
ag148
asg72
(lp742
g98
ag99
ag9
ag10
ag460
ag461
ag249
ag250
ag223
ag345
ag119
ag251
ag16
ag214
ag312
ag337
ag252
ag227
ag122
ag28
ag29
ag462
ag389
ag338
ag339
ag37
ag297
ag126
ag229
ag171
ag172
ag47
ag128
ag239
ag50
ag266
ag133
ag366
ag367
ag240
ag107
ag241
ag52
ag53
ag134
ag340
ag242
ag195
ag299
ag300
ag341
ag135
ag434
ag401
ag270
ag368
ag350
ag385
ag411
ag412
ag272
ag218
ag275
ag276
ag342
ag346
ag323
ag83
ag84
ag87
ag88
ag143
ag188
ag307
ag243
ag244
ag1
ag146
ag391
ag392
ag147
ag94
ag95
ag96
asg91
(lp743
g153
ag365
ag197
ag98
ag99
ag460
ag461
ag115
ag116
ag155
ag156
ag13
ag14
ag15
ag223
ag235
ag100
ag158
ag159
ag17
ag160
ag312
ag161
ag349
ag238
ag162
ag163
ag226
ag227
ag253
ag165
ag166
ag168
ag21
ag22
ag215
ag23
ag24
ag25
ag26
ag257
ag371
ag462
ag325
ag35
ag36
ag37
ag228
ag38
ag42
ag170
ag43
ag104
ag171
ag172
ag173
ag48
ag49
ag203
ag239
ag216
ag380
ag106
ag176
ag240
ag177
ag267
ag178
ag340
ag333
ag179
ag180
ag181
ag341
ag269
ag182
ag62
ag109
ag362
ag184
ag271
ag73
ag218
ag219
ag320
ag79
ag186
ag207
ag189
ag190
ag243
ag244
ag1
ag146
ag147
ag192
ag193
ag111
ag194
asg190
(lp744
g222
ag98
ag99
ag5
ag6
ag236
ag237
ag224
ag125
ag127
ag216
ag130
ag175
ag132
ag231
ag143
ag188
ag146
ag147
ag90
ag91
ag208
ag194
asg333
(lp745
g295
ag117
ag118
ag119
ag225
ag290
ag39
ag44
ag46
ag105
ag47
ag239
ag130
ag131
ag133
ag240
ag241
ag242
ag334
ag135
ag109
ag137
ag138
ag139
ag140
ag231
ag141
ag142
ag188
ag144
ag145
ag243
ag244
ag146
ag147
ag90
ag91
asg374
(lp746
g222
ag98
ag99
ag5
ag100
ag227
ag290
ag281
ag125
ag216
ag109
ag231
ag143
ag188
ag146
ag292
as.